
STM32F743_NUCLEO_Nokia5510_LCD.elf:     file format elf32-littlearm

Sections:
Idx Name          Size      VMA       LMA       File off  Algn
  0 .isr_vector   00000298  08000000  08000000  00010000  2**0
                  CONTENTS, ALLOC, LOAD, READONLY, DATA
  1 .text         00005504  08000298  08000298  00010298  2**2
                  CONTENTS, ALLOC, LOAD, READONLY, CODE
  2 .rodata       0000242c  0800579c  0800579c  0001579c  2**2
                  CONTENTS, ALLOC, LOAD, READONLY, DATA
  3 .ARM          00000008  08007bc8  08007bc8  00017bc8  2**2
                  CONTENTS, ALLOC, LOAD, READONLY, DATA
  4 .init_array   00000004  08007bd0  08007bd0  00017bd0  2**2
                  CONTENTS, ALLOC, LOAD, DATA
  5 .fini_array   00000004  08007bd4  08007bd4  00017bd4  2**2
                  CONTENTS, ALLOC, LOAD, DATA
  6 .data         0000007c  20000000  08007bd8  00020000  2**2
                  CONTENTS, ALLOC, LOAD, DATA
  7 .RxDecripSection 00000060  2000007c  08007c54  0002007c  2**2
                  CONTENTS, ALLOC, LOAD, DATA
  8 .TxDecripSection 00000060  200000dc  08007cb4  000200dc  2**2
                  CONTENTS, ALLOC, LOAD, DATA
  9 .bss          00000650  2000013c  08007d14  0002013c  2**2
                  ALLOC
 10 ._user_heap_stack 00000600  2000078c  08007d14  0002078c  2**0
                  ALLOC
 11 .ARM.attributes 0000002e  00000000  00000000  0002013c  2**0
                  CONTENTS, READONLY
 12 .debug_info   00026910  00000000  00000000  0002016a  2**0
                  CONTENTS, READONLY, DEBUGGING
 13 .debug_abbrev 00003f9b  00000000  00000000  00046a7a  2**0
                  CONTENTS, READONLY, DEBUGGING
 14 .debug_loc    0000b47c  00000000  00000000  0004aa15  2**0
                  CONTENTS, READONLY, DEBUGGING
 15 .debug_aranges 00001000  00000000  00000000  00055e98  2**3
                  CONTENTS, READONLY, DEBUGGING
 16 .debug_ranges 00000f38  00000000  00000000  00056e98  2**3
                  CONTENTS, READONLY, DEBUGGING
 17 .debug_line   00008d7e  00000000  00000000  00057dd0  2**0
                  CONTENTS, READONLY, DEBUGGING
 18 .debug_str    0000da35  00000000  00000000  00060b4e  2**0
                  CONTENTS, READONLY, DEBUGGING
 19 .comment      000000f7  00000000  00000000  0006e583  2**0
                  CONTENTS, READONLY
 20 .debug_frame  00002ad8  00000000  00000000  0006e67c  2**2
                  CONTENTS, READONLY, DEBUGGING
 21 .debug_macro  00001970  00000000  00000000  00071154  2**0
                  CONTENTS, READONLY, DEBUGGING

Disassembly of section .text:

08000298 <__do_global_dtors_aux>:
 8000298:	b510      	push	{r4, lr}
 800029a:	4c05      	ldr	r4, [pc, #20]	; (80002b0 <__do_global_dtors_aux+0x18>)
 800029c:	7823      	ldrb	r3, [r4, #0]
 800029e:	b933      	cbnz	r3, 80002ae <__do_global_dtors_aux+0x16>
 80002a0:	4b04      	ldr	r3, [pc, #16]	; (80002b4 <__do_global_dtors_aux+0x1c>)
 80002a2:	b113      	cbz	r3, 80002aa <__do_global_dtors_aux+0x12>
 80002a4:	4804      	ldr	r0, [pc, #16]	; (80002b8 <__do_global_dtors_aux+0x20>)
 80002a6:	f3af 8000 	nop.w
 80002aa:	2301      	movs	r3, #1
 80002ac:	7023      	strb	r3, [r4, #0]
 80002ae:	bd10      	pop	{r4, pc}
 80002b0:	2000013c 	.word	0x2000013c
 80002b4:	00000000 	.word	0x00000000
 80002b8:	08005784 	.word	0x08005784

080002bc <frame_dummy>:
 80002bc:	b508      	push	{r3, lr}
 80002be:	4b03      	ldr	r3, [pc, #12]	; (80002cc <frame_dummy+0x10>)
 80002c0:	b11b      	cbz	r3, 80002ca <frame_dummy+0xe>
 80002c2:	4903      	ldr	r1, [pc, #12]	; (80002d0 <frame_dummy+0x14>)
 80002c4:	4803      	ldr	r0, [pc, #12]	; (80002d4 <frame_dummy+0x18>)
 80002c6:	f3af 8000 	nop.w
 80002ca:	bd08      	pop	{r3, pc}
 80002cc:	00000000 	.word	0x00000000
 80002d0:	20000140 	.word	0x20000140
 80002d4:	08005784 	.word	0x08005784

080002d8 <__aeabi_uldivmod>:
 80002d8:	b953      	cbnz	r3, 80002f0 <__aeabi_uldivmod+0x18>
 80002da:	b94a      	cbnz	r2, 80002f0 <__aeabi_uldivmod+0x18>
 80002dc:	2900      	cmp	r1, #0
 80002de:	bf08      	it	eq
 80002e0:	2800      	cmpeq	r0, #0
 80002e2:	bf1c      	itt	ne
 80002e4:	f04f 31ff 	movne.w	r1, #4294967295	; 0xffffffff
 80002e8:	f04f 30ff 	movne.w	r0, #4294967295	; 0xffffffff
 80002ec:	f000 b972 	b.w	80005d4 <__aeabi_idiv0>
 80002f0:	f1ad 0c08 	sub.w	ip, sp, #8
 80002f4:	e96d ce04 	strd	ip, lr, [sp, #-16]!
 80002f8:	f000 f806 	bl	8000308 <__udivmoddi4>
 80002fc:	f8dd e004 	ldr.w	lr, [sp, #4]
 8000300:	e9dd 2302 	ldrd	r2, r3, [sp, #8]
 8000304:	b004      	add	sp, #16
 8000306:	4770      	bx	lr

08000308 <__udivmoddi4>:
 8000308:	e92d 47f0 	stmdb	sp!, {r4, r5, r6, r7, r8, r9, sl, lr}
 800030c:	9e08      	ldr	r6, [sp, #32]
 800030e:	4604      	mov	r4, r0
 8000310:	4688      	mov	r8, r1
 8000312:	2b00      	cmp	r3, #0
 8000314:	d14b      	bne.n	80003ae <__udivmoddi4+0xa6>
 8000316:	428a      	cmp	r2, r1
 8000318:	4615      	mov	r5, r2
 800031a:	d967      	bls.n	80003ec <__udivmoddi4+0xe4>
 800031c:	fab2 f282 	clz	r2, r2
 8000320:	b14a      	cbz	r2, 8000336 <__udivmoddi4+0x2e>
 8000322:	f1c2 0720 	rsb	r7, r2, #32
 8000326:	fa01 f302 	lsl.w	r3, r1, r2
 800032a:	fa20 f707 	lsr.w	r7, r0, r7
 800032e:	4095      	lsls	r5, r2
 8000330:	ea47 0803 	orr.w	r8, r7, r3
 8000334:	4094      	lsls	r4, r2
 8000336:	ea4f 4e15 	mov.w	lr, r5, lsr #16
 800033a:	0c23      	lsrs	r3, r4, #16
 800033c:	fbb8 f7fe 	udiv	r7, r8, lr
 8000340:	fa1f fc85 	uxth.w	ip, r5
 8000344:	fb0e 8817 	mls	r8, lr, r7, r8
 8000348:	ea43 4308 	orr.w	r3, r3, r8, lsl #16
 800034c:	fb07 f10c 	mul.w	r1, r7, ip
 8000350:	4299      	cmp	r1, r3
 8000352:	d909      	bls.n	8000368 <__udivmoddi4+0x60>
 8000354:	18eb      	adds	r3, r5, r3
 8000356:	f107 30ff 	add.w	r0, r7, #4294967295	; 0xffffffff
 800035a:	f080 811b 	bcs.w	8000594 <__udivmoddi4+0x28c>
 800035e:	4299      	cmp	r1, r3
 8000360:	f240 8118 	bls.w	8000594 <__udivmoddi4+0x28c>
 8000364:	3f02      	subs	r7, #2
 8000366:	442b      	add	r3, r5
 8000368:	1a5b      	subs	r3, r3, r1
 800036a:	b2a4      	uxth	r4, r4
 800036c:	fbb3 f0fe 	udiv	r0, r3, lr
 8000370:	fb0e 3310 	mls	r3, lr, r0, r3
 8000374:	ea44 4403 	orr.w	r4, r4, r3, lsl #16
 8000378:	fb00 fc0c 	mul.w	ip, r0, ip
 800037c:	45a4      	cmp	ip, r4
 800037e:	d909      	bls.n	8000394 <__udivmoddi4+0x8c>
 8000380:	192c      	adds	r4, r5, r4
 8000382:	f100 33ff 	add.w	r3, r0, #4294967295	; 0xffffffff
 8000386:	f080 8107 	bcs.w	8000598 <__udivmoddi4+0x290>
 800038a:	45a4      	cmp	ip, r4
 800038c:	f240 8104 	bls.w	8000598 <__udivmoddi4+0x290>
 8000390:	3802      	subs	r0, #2
 8000392:	442c      	add	r4, r5
 8000394:	ea40 4007 	orr.w	r0, r0, r7, lsl #16
 8000398:	eba4 040c 	sub.w	r4, r4, ip
 800039c:	2700      	movs	r7, #0
 800039e:	b11e      	cbz	r6, 80003a8 <__udivmoddi4+0xa0>
 80003a0:	40d4      	lsrs	r4, r2
 80003a2:	2300      	movs	r3, #0
 80003a4:	e9c6 4300 	strd	r4, r3, [r6]
 80003a8:	4639      	mov	r1, r7
 80003aa:	e8bd 87f0 	ldmia.w	sp!, {r4, r5, r6, r7, r8, r9, sl, pc}
 80003ae:	428b      	cmp	r3, r1
 80003b0:	d909      	bls.n	80003c6 <__udivmoddi4+0xbe>
 80003b2:	2e00      	cmp	r6, #0
 80003b4:	f000 80eb 	beq.w	800058e <__udivmoddi4+0x286>
 80003b8:	2700      	movs	r7, #0
 80003ba:	e9c6 0100 	strd	r0, r1, [r6]
 80003be:	4638      	mov	r0, r7
 80003c0:	4639      	mov	r1, r7
 80003c2:	e8bd 87f0 	ldmia.w	sp!, {r4, r5, r6, r7, r8, r9, sl, pc}
 80003c6:	fab3 f783 	clz	r7, r3
 80003ca:	2f00      	cmp	r7, #0
 80003cc:	d147      	bne.n	800045e <__udivmoddi4+0x156>
 80003ce:	428b      	cmp	r3, r1
 80003d0:	d302      	bcc.n	80003d8 <__udivmoddi4+0xd0>
 80003d2:	4282      	cmp	r2, r0
 80003d4:	f200 80fa 	bhi.w	80005cc <__udivmoddi4+0x2c4>
 80003d8:	1a84      	subs	r4, r0, r2
 80003da:	eb61 0303 	sbc.w	r3, r1, r3
 80003de:	2001      	movs	r0, #1
 80003e0:	4698      	mov	r8, r3
 80003e2:	2e00      	cmp	r6, #0
 80003e4:	d0e0      	beq.n	80003a8 <__udivmoddi4+0xa0>
 80003e6:	e9c6 4800 	strd	r4, r8, [r6]
 80003ea:	e7dd      	b.n	80003a8 <__udivmoddi4+0xa0>
 80003ec:	b902      	cbnz	r2, 80003f0 <__udivmoddi4+0xe8>
 80003ee:	deff      	udf	#255	; 0xff
 80003f0:	fab2 f282 	clz	r2, r2
 80003f4:	2a00      	cmp	r2, #0
 80003f6:	f040 808f 	bne.w	8000518 <__udivmoddi4+0x210>
 80003fa:	1b49      	subs	r1, r1, r5
 80003fc:	ea4f 4e15 	mov.w	lr, r5, lsr #16
 8000400:	fa1f f885 	uxth.w	r8, r5
 8000404:	2701      	movs	r7, #1
 8000406:	fbb1 fcfe 	udiv	ip, r1, lr
 800040a:	0c23      	lsrs	r3, r4, #16
 800040c:	fb0e 111c 	mls	r1, lr, ip, r1
 8000410:	ea43 4301 	orr.w	r3, r3, r1, lsl #16
 8000414:	fb08 f10c 	mul.w	r1, r8, ip
 8000418:	4299      	cmp	r1, r3
 800041a:	d907      	bls.n	800042c <__udivmoddi4+0x124>
 800041c:	18eb      	adds	r3, r5, r3
 800041e:	f10c 30ff 	add.w	r0, ip, #4294967295	; 0xffffffff
 8000422:	d202      	bcs.n	800042a <__udivmoddi4+0x122>
 8000424:	4299      	cmp	r1, r3
 8000426:	f200 80cd 	bhi.w	80005c4 <__udivmoddi4+0x2bc>
 800042a:	4684      	mov	ip, r0
 800042c:	1a59      	subs	r1, r3, r1
 800042e:	b2a3      	uxth	r3, r4
 8000430:	fbb1 f0fe 	udiv	r0, r1, lr
 8000434:	fb0e 1410 	mls	r4, lr, r0, r1
 8000438:	ea43 4404 	orr.w	r4, r3, r4, lsl #16
 800043c:	fb08 f800 	mul.w	r8, r8, r0
 8000440:	45a0      	cmp	r8, r4
 8000442:	d907      	bls.n	8000454 <__udivmoddi4+0x14c>
 8000444:	192c      	adds	r4, r5, r4
 8000446:	f100 33ff 	add.w	r3, r0, #4294967295	; 0xffffffff
 800044a:	d202      	bcs.n	8000452 <__udivmoddi4+0x14a>
 800044c:	45a0      	cmp	r8, r4
 800044e:	f200 80b6 	bhi.w	80005be <__udivmoddi4+0x2b6>
 8000452:	4618      	mov	r0, r3
 8000454:	eba4 0408 	sub.w	r4, r4, r8
 8000458:	ea40 400c 	orr.w	r0, r0, ip, lsl #16
 800045c:	e79f      	b.n	800039e <__udivmoddi4+0x96>
 800045e:	f1c7 0c20 	rsb	ip, r7, #32
 8000462:	40bb      	lsls	r3, r7
 8000464:	fa22 fe0c 	lsr.w	lr, r2, ip
 8000468:	ea4e 0e03 	orr.w	lr, lr, r3
 800046c:	fa01 f407 	lsl.w	r4, r1, r7
 8000470:	fa20 f50c 	lsr.w	r5, r0, ip
 8000474:	fa21 f30c 	lsr.w	r3, r1, ip
 8000478:	ea4f 481e 	mov.w	r8, lr, lsr #16
 800047c:	4325      	orrs	r5, r4
 800047e:	fbb3 f9f8 	udiv	r9, r3, r8
 8000482:	0c2c      	lsrs	r4, r5, #16
 8000484:	fb08 3319 	mls	r3, r8, r9, r3
 8000488:	fa1f fa8e 	uxth.w	sl, lr
 800048c:	ea44 4303 	orr.w	r3, r4, r3, lsl #16
 8000490:	fb09 f40a 	mul.w	r4, r9, sl
 8000494:	429c      	cmp	r4, r3
 8000496:	fa02 f207 	lsl.w	r2, r2, r7
 800049a:	fa00 f107 	lsl.w	r1, r0, r7
 800049e:	d90b      	bls.n	80004b8 <__udivmoddi4+0x1b0>
 80004a0:	eb1e 0303 	adds.w	r3, lr, r3
 80004a4:	f109 30ff 	add.w	r0, r9, #4294967295	; 0xffffffff
 80004a8:	f080 8087 	bcs.w	80005ba <__udivmoddi4+0x2b2>
 80004ac:	429c      	cmp	r4, r3
 80004ae:	f240 8084 	bls.w	80005ba <__udivmoddi4+0x2b2>
 80004b2:	f1a9 0902 	sub.w	r9, r9, #2
 80004b6:	4473      	add	r3, lr
 80004b8:	1b1b      	subs	r3, r3, r4
 80004ba:	b2ad      	uxth	r5, r5
 80004bc:	fbb3 f0f8 	udiv	r0, r3, r8
 80004c0:	fb08 3310 	mls	r3, r8, r0, r3
 80004c4:	ea45 4403 	orr.w	r4, r5, r3, lsl #16
 80004c8:	fb00 fa0a 	mul.w	sl, r0, sl
 80004cc:	45a2      	cmp	sl, r4
 80004ce:	d908      	bls.n	80004e2 <__udivmoddi4+0x1da>
 80004d0:	eb1e 0404 	adds.w	r4, lr, r4
 80004d4:	f100 33ff 	add.w	r3, r0, #4294967295	; 0xffffffff
 80004d8:	d26b      	bcs.n	80005b2 <__udivmoddi4+0x2aa>
 80004da:	45a2      	cmp	sl, r4
 80004dc:	d969      	bls.n	80005b2 <__udivmoddi4+0x2aa>
 80004de:	3802      	subs	r0, #2
 80004e0:	4474      	add	r4, lr
 80004e2:	ea40 4009 	orr.w	r0, r0, r9, lsl #16
 80004e6:	fba0 8902 	umull	r8, r9, r0, r2
 80004ea:	eba4 040a 	sub.w	r4, r4, sl
 80004ee:	454c      	cmp	r4, r9
 80004f0:	46c2      	mov	sl, r8
 80004f2:	464b      	mov	r3, r9
 80004f4:	d354      	bcc.n	80005a0 <__udivmoddi4+0x298>
 80004f6:	d051      	beq.n	800059c <__udivmoddi4+0x294>
 80004f8:	2e00      	cmp	r6, #0
 80004fa:	d069      	beq.n	80005d0 <__udivmoddi4+0x2c8>
 80004fc:	ebb1 050a 	subs.w	r5, r1, sl
 8000500:	eb64 0403 	sbc.w	r4, r4, r3
 8000504:	fa04 fc0c 	lsl.w	ip, r4, ip
 8000508:	40fd      	lsrs	r5, r7
 800050a:	40fc      	lsrs	r4, r7
 800050c:	ea4c 0505 	orr.w	r5, ip, r5
 8000510:	e9c6 5400 	strd	r5, r4, [r6]
 8000514:	2700      	movs	r7, #0
 8000516:	e747      	b.n	80003a8 <__udivmoddi4+0xa0>
 8000518:	f1c2 0320 	rsb	r3, r2, #32
 800051c:	fa20 f703 	lsr.w	r7, r0, r3
 8000520:	4095      	lsls	r5, r2
 8000522:	fa01 f002 	lsl.w	r0, r1, r2
 8000526:	fa21 f303 	lsr.w	r3, r1, r3
 800052a:	ea4f 4e15 	mov.w	lr, r5, lsr #16
 800052e:	4338      	orrs	r0, r7
 8000530:	0c01      	lsrs	r1, r0, #16
 8000532:	fbb3 f7fe 	udiv	r7, r3, lr
 8000536:	fa1f f885 	uxth.w	r8, r5
 800053a:	fb0e 3317 	mls	r3, lr, r7, r3
 800053e:	ea41 4103 	orr.w	r1, r1, r3, lsl #16
 8000542:	fb07 f308 	mul.w	r3, r7, r8
 8000546:	428b      	cmp	r3, r1
 8000548:	fa04 f402 	lsl.w	r4, r4, r2
 800054c:	d907      	bls.n	800055e <__udivmoddi4+0x256>
 800054e:	1869      	adds	r1, r5, r1
 8000550:	f107 3cff 	add.w	ip, r7, #4294967295	; 0xffffffff
 8000554:	d22f      	bcs.n	80005b6 <__udivmoddi4+0x2ae>
 8000556:	428b      	cmp	r3, r1
 8000558:	d92d      	bls.n	80005b6 <__udivmoddi4+0x2ae>
 800055a:	3f02      	subs	r7, #2
 800055c:	4429      	add	r1, r5
 800055e:	1acb      	subs	r3, r1, r3
 8000560:	b281      	uxth	r1, r0
 8000562:	fbb3 f0fe 	udiv	r0, r3, lr
 8000566:	fb0e 3310 	mls	r3, lr, r0, r3
 800056a:	ea41 4103 	orr.w	r1, r1, r3, lsl #16
 800056e:	fb00 f308 	mul.w	r3, r0, r8
 8000572:	428b      	cmp	r3, r1
 8000574:	d907      	bls.n	8000586 <__udivmoddi4+0x27e>
 8000576:	1869      	adds	r1, r5, r1
 8000578:	f100 3cff 	add.w	ip, r0, #4294967295	; 0xffffffff
 800057c:	d217      	bcs.n	80005ae <__udivmoddi4+0x2a6>
 800057e:	428b      	cmp	r3, r1
 8000580:	d915      	bls.n	80005ae <__udivmoddi4+0x2a6>
 8000582:	3802      	subs	r0, #2
 8000584:	4429      	add	r1, r5
 8000586:	1ac9      	subs	r1, r1, r3
 8000588:	ea40 4707 	orr.w	r7, r0, r7, lsl #16
 800058c:	e73b      	b.n	8000406 <__udivmoddi4+0xfe>
 800058e:	4637      	mov	r7, r6
 8000590:	4630      	mov	r0, r6
 8000592:	e709      	b.n	80003a8 <__udivmoddi4+0xa0>
 8000594:	4607      	mov	r7, r0
 8000596:	e6e7      	b.n	8000368 <__udivmoddi4+0x60>
 8000598:	4618      	mov	r0, r3
 800059a:	e6fb      	b.n	8000394 <__udivmoddi4+0x8c>
 800059c:	4541      	cmp	r1, r8
 800059e:	d2ab      	bcs.n	80004f8 <__udivmoddi4+0x1f0>
 80005a0:	ebb8 0a02 	subs.w	sl, r8, r2
 80005a4:	eb69 020e 	sbc.w	r2, r9, lr
 80005a8:	3801      	subs	r0, #1
 80005aa:	4613      	mov	r3, r2
 80005ac:	e7a4      	b.n	80004f8 <__udivmoddi4+0x1f0>
 80005ae:	4660      	mov	r0, ip
 80005b0:	e7e9      	b.n	8000586 <__udivmoddi4+0x27e>
 80005b2:	4618      	mov	r0, r3
 80005b4:	e795      	b.n	80004e2 <__udivmoddi4+0x1da>
 80005b6:	4667      	mov	r7, ip
 80005b8:	e7d1      	b.n	800055e <__udivmoddi4+0x256>
 80005ba:	4681      	mov	r9, r0
 80005bc:	e77c      	b.n	80004b8 <__udivmoddi4+0x1b0>
 80005be:	3802      	subs	r0, #2
 80005c0:	442c      	add	r4, r5
 80005c2:	e747      	b.n	8000454 <__udivmoddi4+0x14c>
 80005c4:	f1ac 0c02 	sub.w	ip, ip, #2
 80005c8:	442b      	add	r3, r5
 80005ca:	e72f      	b.n	800042c <__udivmoddi4+0x124>
 80005cc:	4638      	mov	r0, r7
 80005ce:	e708      	b.n	80003e2 <__udivmoddi4+0xda>
 80005d0:	4637      	mov	r7, r6
 80005d2:	e6e9      	b.n	80003a8 <__udivmoddi4+0xa0>

080005d4 <__aeabi_idiv0>:
 80005d4:	4770      	bx	lr
 80005d6:	bf00      	nop

080005d8 <HAL_InitTick>:
 80005d8:	b510      	push	{r4, lr}
 80005da:	4604      	mov	r4, r0
 80005dc:	4b0e      	ldr	r3, [pc, #56]	; (8000618 <HAL_InitTick+0x40>)
 80005de:	7818      	ldrb	r0, [r3, #0]
 80005e0:	f44f 737a 	mov.w	r3, #1000	; 0x3e8
 80005e4:	fbb3 f3f0 	udiv	r3, r3, r0
 80005e8:	4a0c      	ldr	r2, [pc, #48]	; (800061c <HAL_InitTick+0x44>)
 80005ea:	6810      	ldr	r0, [r2, #0]
 80005ec:	fbb0 f0f3 	udiv	r0, r0, r3
 80005f0:	f000 f8a8 	bl	8000744 <HAL_SYSTICK_Config>
 80005f4:	b968      	cbnz	r0, 8000612 <HAL_InitTick+0x3a>
 80005f6:	2c0f      	cmp	r4, #15
 80005f8:	d901      	bls.n	80005fe <HAL_InitTick+0x26>
 80005fa:	2001      	movs	r0, #1
 80005fc:	bd10      	pop	{r4, pc}
 80005fe:	2200      	movs	r2, #0
 8000600:	4621      	mov	r1, r4
 8000602:	f04f 30ff 	mov.w	r0, #4294967295	; 0xffffffff
 8000606:	f000 f85f 	bl	80006c8 <HAL_NVIC_SetPriority>
 800060a:	4b05      	ldr	r3, [pc, #20]	; (8000620 <HAL_InitTick+0x48>)
 800060c:	601c      	str	r4, [r3, #0]
 800060e:	2000      	movs	r0, #0
 8000610:	bd10      	pop	{r4, pc}
 8000612:	2001      	movs	r0, #1
 8000614:	bd10      	pop	{r4, pc}
 8000616:	bf00      	nop
 8000618:	20000000 	.word	0x20000000
 800061c:	20000010 	.word	0x20000010
 8000620:	20000004 	.word	0x20000004

08000624 <HAL_Init>:
 8000624:	b510      	push	{r4, lr}
 8000626:	2003      	movs	r0, #3
 8000628:	f000 f83c 	bl	80006a4 <HAL_NVIC_SetPriorityGrouping>
 800062c:	2000      	movs	r0, #0
 800062e:	f7ff ffd3 	bl	80005d8 <HAL_InitTick>
 8000632:	b110      	cbz	r0, 800063a <HAL_Init+0x16>
 8000634:	2401      	movs	r4, #1
 8000636:	4620      	mov	r0, r4
 8000638:	bd10      	pop	{r4, pc}
 800063a:	4604      	mov	r4, r0
 800063c:	f004 fe90 	bl	8005360 <HAL_MspInit>
 8000640:	e7f9      	b.n	8000636 <HAL_Init+0x12>
	...

08000644 <HAL_IncTick>:
 8000644:	4b03      	ldr	r3, [pc, #12]	; (8000654 <HAL_IncTick+0x10>)
 8000646:	781b      	ldrb	r3, [r3, #0]
 8000648:	4a03      	ldr	r2, [pc, #12]	; (8000658 <HAL_IncTick+0x14>)
 800064a:	6811      	ldr	r1, [r2, #0]
 800064c:	440b      	add	r3, r1
 800064e:	6013      	str	r3, [r2, #0]
 8000650:	4770      	bx	lr
 8000652:	bf00      	nop
 8000654:	20000000 	.word	0x20000000
 8000658:	20000158 	.word	0x20000158

0800065c <HAL_GetTick>:
 800065c:	4b01      	ldr	r3, [pc, #4]	; (8000664 <HAL_GetTick+0x8>)
 800065e:	6818      	ldr	r0, [r3, #0]
 8000660:	4770      	bx	lr
 8000662:	bf00      	nop
 8000664:	20000158 	.word	0x20000158

08000668 <HAL_Delay>:
 8000668:	b538      	push	{r3, r4, r5, lr}
 800066a:	4604      	mov	r4, r0
 800066c:	f7ff fff6 	bl	800065c <HAL_GetTick>
 8000670:	4605      	mov	r5, r0
 8000672:	f1b4 3fff 	cmp.w	r4, #4294967295	; 0xffffffff
 8000676:	d002      	beq.n	800067e <HAL_Delay+0x16>
 8000678:	4b04      	ldr	r3, [pc, #16]	; (800068c <HAL_Delay+0x24>)
 800067a:	781b      	ldrb	r3, [r3, #0]
 800067c:	441c      	add	r4, r3
 800067e:	f7ff ffed 	bl	800065c <HAL_GetTick>
 8000682:	1b40      	subs	r0, r0, r5
 8000684:	4284      	cmp	r4, r0
 8000686:	d8fa      	bhi.n	800067e <HAL_Delay+0x16>
 8000688:	bd38      	pop	{r3, r4, r5, pc}
 800068a:	bf00      	nop
 800068c:	20000000 	.word	0x20000000

08000690 <HAL_SYSCFG_ETHInterfaceSelect>:
 8000690:	4a03      	ldr	r2, [pc, #12]	; (80006a0 <HAL_SYSCFG_ETHInterfaceSelect+0x10>)
 8000692:	6853      	ldr	r3, [r2, #4]
 8000694:	f423 0360 	bic.w	r3, r3, #14680064	; 0xe00000
 8000698:	4318      	orrs	r0, r3
 800069a:	6050      	str	r0, [r2, #4]
 800069c:	4770      	bx	lr
 800069e:	bf00      	nop
 80006a0:	58000400 	.word	0x58000400

080006a4 <HAL_NVIC_SetPriorityGrouping>:
 80006a4:	4906      	ldr	r1, [pc, #24]	; (80006c0 <HAL_NVIC_SetPriorityGrouping+0x1c>)
 80006a6:	68cb      	ldr	r3, [r1, #12]
 80006a8:	f423 63e0 	bic.w	r3, r3, #1792	; 0x700
 80006ac:	041b      	lsls	r3, r3, #16
 80006ae:	0c1b      	lsrs	r3, r3, #16
 80006b0:	0200      	lsls	r0, r0, #8
 80006b2:	f400 60e0 	and.w	r0, r0, #1792	; 0x700
 80006b6:	4303      	orrs	r3, r0
 80006b8:	4a02      	ldr	r2, [pc, #8]	; (80006c4 <HAL_NVIC_SetPriorityGrouping+0x20>)
 80006ba:	431a      	orrs	r2, r3
 80006bc:	60ca      	str	r2, [r1, #12]
 80006be:	4770      	bx	lr
 80006c0:	e000ed00 	.word	0xe000ed00
 80006c4:	05fa0000 	.word	0x05fa0000

080006c8 <HAL_NVIC_SetPriority>:
 80006c8:	b430      	push	{r4, r5}
 80006ca:	4b14      	ldr	r3, [pc, #80]	; (800071c <HAL_NVIC_SetPriority+0x54>)
 80006cc:	68db      	ldr	r3, [r3, #12]
 80006ce:	f3c3 2302 	ubfx	r3, r3, #8, #3
 80006d2:	f1c3 0407 	rsb	r4, r3, #7
 80006d6:	2c04      	cmp	r4, #4
 80006d8:	bf28      	it	cs
 80006da:	2404      	movcs	r4, #4
 80006dc:	1d1d      	adds	r5, r3, #4
 80006de:	2d06      	cmp	r5, #6
 80006e0:	d913      	bls.n	800070a <HAL_NVIC_SetPriority+0x42>
 80006e2:	3b03      	subs	r3, #3
 80006e4:	2501      	movs	r5, #1
 80006e6:	fa05 f404 	lsl.w	r4, r5, r4
 80006ea:	3c01      	subs	r4, #1
 80006ec:	4021      	ands	r1, r4
 80006ee:	4099      	lsls	r1, r3
 80006f0:	fa05 f303 	lsl.w	r3, r5, r3
 80006f4:	3b01      	subs	r3, #1
 80006f6:	4013      	ands	r3, r2
 80006f8:	4319      	orrs	r1, r3
 80006fa:	2800      	cmp	r0, #0
 80006fc:	db07      	blt.n	800070e <HAL_NVIC_SetPriority+0x46>
 80006fe:	0109      	lsls	r1, r1, #4
 8000700:	b2c9      	uxtb	r1, r1
 8000702:	4b07      	ldr	r3, [pc, #28]	; (8000720 <HAL_NVIC_SetPriority+0x58>)
 8000704:	5419      	strb	r1, [r3, r0]
 8000706:	bc30      	pop	{r4, r5}
 8000708:	4770      	bx	lr
 800070a:	2300      	movs	r3, #0
 800070c:	e7ea      	b.n	80006e4 <HAL_NVIC_SetPriority+0x1c>
 800070e:	f000 000f 	and.w	r0, r0, #15
 8000712:	0109      	lsls	r1, r1, #4
 8000714:	b2c9      	uxtb	r1, r1
 8000716:	4b03      	ldr	r3, [pc, #12]	; (8000724 <HAL_NVIC_SetPriority+0x5c>)
 8000718:	5419      	strb	r1, [r3, r0]
 800071a:	e7f4      	b.n	8000706 <HAL_NVIC_SetPriority+0x3e>
 800071c:	e000ed00 	.word	0xe000ed00
 8000720:	e000e400 	.word	0xe000e400
 8000724:	e000ed14 	.word	0xe000ed14

08000728 <HAL_NVIC_EnableIRQ>:
 8000728:	2800      	cmp	r0, #0
 800072a:	db08      	blt.n	800073e <HAL_NVIC_EnableIRQ+0x16>
 800072c:	0942      	lsrs	r2, r0, #5
 800072e:	f000 001f 	and.w	r0, r0, #31
 8000732:	2301      	movs	r3, #1
 8000734:	fa03 f000 	lsl.w	r0, r3, r0
 8000738:	4b01      	ldr	r3, [pc, #4]	; (8000740 <HAL_NVIC_EnableIRQ+0x18>)
 800073a:	f843 0022 	str.w	r0, [r3, r2, lsl #2]
 800073e:	4770      	bx	lr
 8000740:	e000e100 	.word	0xe000e100

08000744 <HAL_SYSTICK_Config>:
 8000744:	3801      	subs	r0, #1
 8000746:	f1b0 7f80 	cmp.w	r0, #16777216	; 0x1000000
 800074a:	d20a      	bcs.n	8000762 <HAL_SYSTICK_Config+0x1e>
 800074c:	4b06      	ldr	r3, [pc, #24]	; (8000768 <HAL_SYSTICK_Config+0x24>)
 800074e:	6058      	str	r0, [r3, #4]
 8000750:	21f0      	movs	r1, #240	; 0xf0
 8000752:	4a06      	ldr	r2, [pc, #24]	; (800076c <HAL_SYSTICK_Config+0x28>)
 8000754:	f882 1023 	strb.w	r1, [r2, #35]	; 0x23
 8000758:	2000      	movs	r0, #0
 800075a:	6098      	str	r0, [r3, #8]
 800075c:	2207      	movs	r2, #7
 800075e:	601a      	str	r2, [r3, #0]
 8000760:	4770      	bx	lr
 8000762:	2001      	movs	r0, #1
 8000764:	4770      	bx	lr
 8000766:	bf00      	nop
 8000768:	e000e010 	.word	0xe000e010
 800076c:	e000ed00 	.word	0xe000ed00

08000770 <HAL_SYSTICK_CLKSourceConfig>:
 8000770:	2804      	cmp	r0, #4
 8000772:	d005      	beq.n	8000780 <HAL_SYSTICK_CLKSourceConfig+0x10>
 8000774:	4a05      	ldr	r2, [pc, #20]	; (800078c <HAL_SYSTICK_CLKSourceConfig+0x1c>)
 8000776:	6813      	ldr	r3, [r2, #0]
 8000778:	f023 0304 	bic.w	r3, r3, #4
 800077c:	6013      	str	r3, [r2, #0]
 800077e:	4770      	bx	lr
 8000780:	4a02      	ldr	r2, [pc, #8]	; (800078c <HAL_SYSTICK_CLKSourceConfig+0x1c>)
 8000782:	6813      	ldr	r3, [r2, #0]
 8000784:	f043 0304 	orr.w	r3, r3, #4
 8000788:	6013      	str	r3, [r2, #0]
 800078a:	4770      	bx	lr
 800078c:	e000e010 	.word	0xe000e010

08000790 <HAL_SYSTICK_Callback>:
 8000790:	4770      	bx	lr

08000792 <HAL_SYSTICK_IRQHandler>:
 8000792:	b508      	push	{r3, lr}
 8000794:	f7ff fffc 	bl	8000790 <HAL_SYSTICK_Callback>
 8000798:	bd08      	pop	{r3, pc}
	...

0800079c <DMA_SetConfig>:
 800079c:	b4f0      	push	{r4, r5, r6, r7}
 800079e:	6d86      	ldr	r6, [r0, #88]	; 0x58
 80007a0:	6e44      	ldr	r4, [r0, #100]	; 0x64
 80007a2:	6e85      	ldr	r5, [r0, #104]	; 0x68
 80007a4:	6065      	str	r5, [r4, #4]
 80007a6:	6ec4      	ldr	r4, [r0, #108]	; 0x6c
 80007a8:	b114      	cbz	r4, 80007b0 <DMA_SetConfig+0x14>
 80007aa:	6f04      	ldr	r4, [r0, #112]	; 0x70
 80007ac:	6f45      	ldr	r5, [r0, #116]	; 0x74
 80007ae:	6065      	str	r5, [r4, #4]
 80007b0:	6805      	ldr	r5, [r0, #0]
 80007b2:	4c1c      	ldr	r4, [pc, #112]	; (8000824 <DMA_SetConfig+0x88>)
 80007b4:	442c      	add	r4, r5
 80007b6:	f5b4 6f95 	cmp.w	r4, #1192	; 0x4a8
 80007ba:	d818      	bhi.n	80007ee <DMA_SetConfig+0x52>
 80007bc:	6dc5      	ldr	r5, [r0, #92]	; 0x5c
 80007be:	243f      	movs	r4, #63	; 0x3f
 80007c0:	40ac      	lsls	r4, r5
 80007c2:	60b4      	str	r4, [r6, #8]
 80007c4:	6805      	ldr	r5, [r0, #0]
 80007c6:	682c      	ldr	r4, [r5, #0]
 80007c8:	f424 2480 	bic.w	r4, r4, #262144	; 0x40000
 80007cc:	602c      	str	r4, [r5, #0]
 80007ce:	6804      	ldr	r4, [r0, #0]
 80007d0:	6063      	str	r3, [r4, #4]
 80007d2:	6883      	ldr	r3, [r0, #8]
 80007d4:	2b40      	cmp	r3, #64	; 0x40
 80007d6:	d005      	beq.n	80007e4 <DMA_SetConfig+0x48>
 80007d8:	6803      	ldr	r3, [r0, #0]
 80007da:	6099      	str	r1, [r3, #8]
 80007dc:	6803      	ldr	r3, [r0, #0]
 80007de:	60da      	str	r2, [r3, #12]
 80007e0:	bcf0      	pop	{r4, r5, r6, r7}
 80007e2:	4770      	bx	lr
 80007e4:	6803      	ldr	r3, [r0, #0]
 80007e6:	609a      	str	r2, [r3, #8]
 80007e8:	6803      	ldr	r3, [r0, #0]
 80007ea:	60d9      	str	r1, [r3, #12]
 80007ec:	e7f8      	b.n	80007e0 <DMA_SetConfig+0x44>
 80007ee:	4c0e      	ldr	r4, [pc, #56]	; (8000828 <DMA_SetConfig+0x8c>)
 80007f0:	442c      	add	r4, r5
 80007f2:	2c8c      	cmp	r4, #140	; 0x8c
 80007f4:	d8f4      	bhi.n	80007e0 <DMA_SetConfig+0x44>
 80007f6:	4e0d      	ldr	r6, [pc, #52]	; (800082c <DMA_SetConfig+0x90>)
 80007f8:	6874      	ldr	r4, [r6, #4]
 80007fa:	6dc7      	ldr	r7, [r0, #92]	; 0x5c
 80007fc:	2501      	movs	r5, #1
 80007fe:	40bd      	lsls	r5, r7
 8000800:	432c      	orrs	r4, r5
 8000802:	6074      	str	r4, [r6, #4]
 8000804:	6804      	ldr	r4, [r0, #0]
 8000806:	6063      	str	r3, [r4, #4]
 8000808:	6883      	ldr	r3, [r0, #8]
 800080a:	2b40      	cmp	r3, #64	; 0x40
 800080c:	d004      	beq.n	8000818 <DMA_SetConfig+0x7c>
 800080e:	6803      	ldr	r3, [r0, #0]
 8000810:	6099      	str	r1, [r3, #8]
 8000812:	6803      	ldr	r3, [r0, #0]
 8000814:	60da      	str	r2, [r3, #12]
 8000816:	e7e3      	b.n	80007e0 <DMA_SetConfig+0x44>
 8000818:	6803      	ldr	r3, [r0, #0]
 800081a:	609a      	str	r2, [r3, #8]
 800081c:	6803      	ldr	r3, [r0, #0]
 800081e:	60d9      	str	r1, [r3, #12]
 8000820:	e7de      	b.n	80007e0 <DMA_SetConfig+0x44>
 8000822:	bf00      	nop
 8000824:	bffdfff0 	.word	0xbffdfff0
 8000828:	a7fdabf8 	.word	0xa7fdabf8
 800082c:	58025400 	.word	0x58025400

08000830 <DMA_CalcBaseAndBitshift>:
 8000830:	6802      	ldr	r2, [r0, #0]
 8000832:	b2d3      	uxtb	r3, r2
 8000834:	3b10      	subs	r3, #16
 8000836:	4909      	ldr	r1, [pc, #36]	; (800085c <DMA_CalcBaseAndBitshift+0x2c>)
 8000838:	fba1 1303 	umull	r1, r3, r1, r3
 800083c:	091b      	lsrs	r3, r3, #4
 800083e:	4908      	ldr	r1, [pc, #32]	; (8000860 <DMA_CalcBaseAndBitshift+0x30>)
 8000840:	5cc9      	ldrb	r1, [r1, r3]
 8000842:	65c1      	str	r1, [r0, #92]	; 0x5c
 8000844:	2b03      	cmp	r3, #3
 8000846:	d804      	bhi.n	8000852 <DMA_CalcBaseAndBitshift+0x22>
 8000848:	4b06      	ldr	r3, [pc, #24]	; (8000864 <DMA_CalcBaseAndBitshift+0x34>)
 800084a:	4013      	ands	r3, r2
 800084c:	6583      	str	r3, [r0, #88]	; 0x58
 800084e:	6d80      	ldr	r0, [r0, #88]	; 0x58
 8000850:	4770      	bx	lr
 8000852:	4b04      	ldr	r3, [pc, #16]	; (8000864 <DMA_CalcBaseAndBitshift+0x34>)
 8000854:	4013      	ands	r3, r2
 8000856:	3304      	adds	r3, #4
 8000858:	6583      	str	r3, [r0, #88]	; 0x58
 800085a:	e7f8      	b.n	800084e <DMA_CalcBaseAndBitshift+0x1e>
 800085c:	aaaaaaab 	.word	0xaaaaaaab
 8000860:	0800579c 	.word	0x0800579c
 8000864:	fffffc00 	.word	0xfffffc00

08000868 <DMA_CheckFifoParam>:
 8000868:	6983      	ldr	r3, [r0, #24]
 800086a:	b99b      	cbnz	r3, 8000894 <DMA_CheckFifoParam+0x2c>
 800086c:	6a83      	ldr	r3, [r0, #40]	; 0x28
 800086e:	2b01      	cmp	r3, #1
 8000870:	d00a      	beq.n	8000888 <DMA_CheckFifoParam+0x20>
 8000872:	b11b      	cbz	r3, 800087c <DMA_CheckFifoParam+0x14>
 8000874:	2b02      	cmp	r3, #2
 8000876:	d001      	beq.n	800087c <DMA_CheckFifoParam+0x14>
 8000878:	2000      	movs	r0, #0
 800087a:	4770      	bx	lr
 800087c:	6ac3      	ldr	r3, [r0, #44]	; 0x2c
 800087e:	f013 7f80 	tst.w	r3, #16777216	; 0x1000000
 8000882:	d12e      	bne.n	80008e2 <DMA_CheckFifoParam+0x7a>
 8000884:	2000      	movs	r0, #0
 8000886:	4770      	bx	lr
 8000888:	6ac3      	ldr	r3, [r0, #44]	; 0x2c
 800088a:	f1b3 7fc0 	cmp.w	r3, #25165824	; 0x1800000
 800088e:	d02a      	beq.n	80008e6 <DMA_CheckFifoParam+0x7e>
 8000890:	2000      	movs	r0, #0
 8000892:	4770      	bx	lr
 8000894:	f5b3 5f00 	cmp.w	r3, #8192	; 0x2000
 8000898:	d006      	beq.n	80008a8 <DMA_CheckFifoParam+0x40>
 800089a:	6a83      	ldr	r3, [r0, #40]	; 0x28
 800089c:	2b02      	cmp	r3, #2
 800089e:	d92a      	bls.n	80008f6 <DMA_CheckFifoParam+0x8e>
 80008a0:	2b03      	cmp	r3, #3
 80008a2:	d016      	beq.n	80008d2 <DMA_CheckFifoParam+0x6a>
 80008a4:	2000      	movs	r0, #0
 80008a6:	4770      	bx	lr
 80008a8:	6a83      	ldr	r3, [r0, #40]	; 0x28
 80008aa:	2b03      	cmp	r3, #3
 80008ac:	d803      	bhi.n	80008b6 <DMA_CheckFifoParam+0x4e>
 80008ae:	e8df f003 	tbb	[pc, r3]
 80008b2:	041c      	.short	0x041c
 80008b4:	0a1c      	.short	0x0a1c
 80008b6:	2000      	movs	r0, #0
 80008b8:	4770      	bx	lr
 80008ba:	6ac3      	ldr	r3, [r0, #44]	; 0x2c
 80008bc:	f013 7f80 	tst.w	r3, #16777216	; 0x1000000
 80008c0:	d115      	bne.n	80008ee <DMA_CheckFifoParam+0x86>
 80008c2:	2000      	movs	r0, #0
 80008c4:	4770      	bx	lr
 80008c6:	6ac3      	ldr	r3, [r0, #44]	; 0x2c
 80008c8:	f1b3 7fc0 	cmp.w	r3, #25165824	; 0x1800000
 80008cc:	d011      	beq.n	80008f2 <DMA_CheckFifoParam+0x8a>
 80008ce:	2000      	movs	r0, #0
 80008d0:	4770      	bx	lr
 80008d2:	6ac3      	ldr	r3, [r0, #44]	; 0x2c
 80008d4:	f013 7f80 	tst.w	r3, #16777216	; 0x1000000
 80008d8:	d001      	beq.n	80008de <DMA_CheckFifoParam+0x76>
 80008da:	2001      	movs	r0, #1
 80008dc:	4770      	bx	lr
 80008de:	2000      	movs	r0, #0
 80008e0:	4770      	bx	lr
 80008e2:	2001      	movs	r0, #1
 80008e4:	4770      	bx	lr
 80008e6:	2001      	movs	r0, #1
 80008e8:	4770      	bx	lr
 80008ea:	2001      	movs	r0, #1
 80008ec:	4770      	bx	lr
 80008ee:	2001      	movs	r0, #1
 80008f0:	4770      	bx	lr
 80008f2:	2001      	movs	r0, #1
 80008f4:	4770      	bx	lr
 80008f6:	2001      	movs	r0, #1
 80008f8:	4770      	bx	lr
	...

080008fc <DMA_CalcDMAMUXChannelBaseAndMask>:
 80008fc:	6803      	ldr	r3, [r0, #0]
 80008fe:	4a15      	ldr	r2, [pc, #84]	; (8000954 <DMA_CalcDMAMUXChannelBaseAndMask+0x58>)
 8000900:	441a      	add	r2, r3
 8000902:	2a8c      	cmp	r2, #140	; 0x8c
 8000904:	d915      	bls.n	8000932 <DMA_CalcDMAMUXChannelBaseAndMask+0x36>
 8000906:	b2da      	uxtb	r2, r3
 8000908:	3a10      	subs	r2, #16
 800090a:	4913      	ldr	r1, [pc, #76]	; (8000958 <DMA_CalcDMAMUXChannelBaseAndMask+0x5c>)
 800090c:	fba1 1202 	umull	r1, r2, r1, r2
 8000910:	0912      	lsrs	r2, r2, #4
 8000912:	4912      	ldr	r1, [pc, #72]	; (800095c <DMA_CalcDMAMUXChannelBaseAndMask+0x60>)
 8000914:	4419      	add	r1, r3
 8000916:	29a8      	cmp	r1, #168	; 0xa8
 8000918:	d800      	bhi.n	800091c <DMA_CalcDMAMUXChannelBaseAndMask+0x20>
 800091a:	3208      	adds	r2, #8
 800091c:	4b10      	ldr	r3, [pc, #64]	; (8000960 <DMA_CalcDMAMUXChannelBaseAndMask+0x64>)
 800091e:	4413      	add	r3, r2
 8000920:	009b      	lsls	r3, r3, #2
 8000922:	6603      	str	r3, [r0, #96]	; 0x60
 8000924:	4b0f      	ldr	r3, [pc, #60]	; (8000964 <DMA_CalcDMAMUXChannelBaseAndMask+0x68>)
 8000926:	6643      	str	r3, [r0, #100]	; 0x64
 8000928:	2301      	movs	r3, #1
 800092a:	fa03 f202 	lsl.w	r2, r3, r2
 800092e:	6682      	str	r2, [r0, #104]	; 0x68
 8000930:	4770      	bx	lr
 8000932:	b2db      	uxtb	r3, r3
 8000934:	3b08      	subs	r3, #8
 8000936:	4a0c      	ldr	r2, [pc, #48]	; (8000968 <DMA_CalcDMAMUXChannelBaseAndMask+0x6c>)
 8000938:	fba2 2303 	umull	r2, r3, r2, r3
 800093c:	091b      	lsrs	r3, r3, #4
 800093e:	4a0b      	ldr	r2, [pc, #44]	; (800096c <DMA_CalcDMAMUXChannelBaseAndMask+0x70>)
 8000940:	441a      	add	r2, r3
 8000942:	0092      	lsls	r2, r2, #2
 8000944:	6602      	str	r2, [r0, #96]	; 0x60
 8000946:	4a0a      	ldr	r2, [pc, #40]	; (8000970 <DMA_CalcDMAMUXChannelBaseAndMask+0x74>)
 8000948:	6642      	str	r2, [r0, #100]	; 0x64
 800094a:	2201      	movs	r2, #1
 800094c:	fa02 f303 	lsl.w	r3, r2, r3
 8000950:	6683      	str	r3, [r0, #104]	; 0x68
 8000952:	4770      	bx	lr
 8000954:	a7fdabf8 	.word	0xa7fdabf8
 8000958:	aaaaaaab 	.word	0xaaaaaaab
 800095c:	bffdfbf0 	.word	0xbffdfbf0
 8000960:	10008200 	.word	0x10008200
 8000964:	40020880 	.word	0x40020880
 8000968:	cccccccd 	.word	0xcccccccd
 800096c:	16009600 	.word	0x16009600
 8000970:	58025880 	.word	0x58025880

08000974 <DMA_CalcDMAMUXRequestGenBaseAndMask>:
 8000974:	b410      	push	{r4}
 8000976:	6804      	ldr	r4, [r0, #0]
 8000978:	7902      	ldrb	r2, [r0, #4]
 800097a:	1e53      	subs	r3, r2, #1
 800097c:	2b07      	cmp	r3, #7
 800097e:	d80d      	bhi.n	800099c <DMA_CalcDMAMUXRequestGenBaseAndMask+0x28>
 8000980:	490b      	ldr	r1, [pc, #44]	; (80009b0 <DMA_CalcDMAMUXRequestGenBaseAndMask+0x3c>)
 8000982:	4421      	add	r1, r4
 8000984:	298c      	cmp	r1, #140	; 0x8c
 8000986:	d80c      	bhi.n	80009a2 <DMA_CalcDMAMUXRequestGenBaseAndMask+0x2e>
 8000988:	490a      	ldr	r1, [pc, #40]	; (80009b4 <DMA_CalcDMAMUXRequestGenBaseAndMask+0x40>)
 800098a:	4411      	add	r1, r2
 800098c:	0089      	lsls	r1, r1, #2
 800098e:	66c1      	str	r1, [r0, #108]	; 0x6c
 8000990:	4a09      	ldr	r2, [pc, #36]	; (80009b8 <DMA_CalcDMAMUXRequestGenBaseAndMask+0x44>)
 8000992:	6702      	str	r2, [r0, #112]	; 0x70
 8000994:	2201      	movs	r2, #1
 8000996:	fa02 f303 	lsl.w	r3, r2, r3
 800099a:	6743      	str	r3, [r0, #116]	; 0x74
 800099c:	f85d 4b04 	ldr.w	r4, [sp], #4
 80009a0:	4770      	bx	lr
 80009a2:	4906      	ldr	r1, [pc, #24]	; (80009bc <DMA_CalcDMAMUXRequestGenBaseAndMask+0x48>)
 80009a4:	4411      	add	r1, r2
 80009a6:	0089      	lsls	r1, r1, #2
 80009a8:	66c1      	str	r1, [r0, #108]	; 0x6c
 80009aa:	4a05      	ldr	r2, [pc, #20]	; (80009c0 <DMA_CalcDMAMUXRequestGenBaseAndMask+0x4c>)
 80009ac:	6702      	str	r2, [r0, #112]	; 0x70
 80009ae:	e7f1      	b.n	8000994 <DMA_CalcDMAMUXRequestGenBaseAndMask+0x20>
 80009b0:	a7fdabf8 	.word	0xa7fdabf8
 80009b4:	1600963f 	.word	0x1600963f
 80009b8:	58025940 	.word	0x58025940
 80009bc:	1000823f 	.word	0x1000823f
 80009c0:	40020940 	.word	0x40020940

080009c4 <HAL_DMA_Init>:
 80009c4:	b570      	push	{r4, r5, r6, lr}
 80009c6:	4604      	mov	r4, r0
 80009c8:	f7ff fe48 	bl	800065c <HAL_GetTick>
 80009cc:	2c00      	cmp	r4, #0
 80009ce:	f000 80c2 	beq.w	8000b56 <HAL_DMA_Init+0x192>
 80009d2:	4605      	mov	r5, r0
 80009d4:	6822      	ldr	r2, [r4, #0]
 80009d6:	4b61      	ldr	r3, [pc, #388]	; (8000b5c <HAL_DMA_Init+0x198>)
 80009d8:	4413      	add	r3, r2
 80009da:	f5b3 6f95 	cmp.w	r3, #1192	; 0x4a8
 80009de:	d855      	bhi.n	8000a8c <HAL_DMA_Init+0xc8>
 80009e0:	2300      	movs	r3, #0
 80009e2:	f884 3034 	strb.w	r3, [r4, #52]	; 0x34
 80009e6:	2302      	movs	r3, #2
 80009e8:	f884 3035 	strb.w	r3, [r4, #53]	; 0x35
 80009ec:	6813      	ldr	r3, [r2, #0]
 80009ee:	f023 0301 	bic.w	r3, r3, #1
 80009f2:	6013      	str	r3, [r2, #0]
 80009f4:	6823      	ldr	r3, [r4, #0]
 80009f6:	681a      	ldr	r2, [r3, #0]
 80009f8:	f012 0f01 	tst.w	r2, #1
 80009fc:	d00b      	beq.n	8000a16 <HAL_DMA_Init+0x52>
 80009fe:	f7ff fe2d 	bl	800065c <HAL_GetTick>
 8000a02:	1b40      	subs	r0, r0, r5
 8000a04:	2805      	cmp	r0, #5
 8000a06:	d9f5      	bls.n	80009f4 <HAL_DMA_Init+0x30>
 8000a08:	2320      	movs	r3, #32
 8000a0a:	6563      	str	r3, [r4, #84]	; 0x54
 8000a0c:	2303      	movs	r3, #3
 8000a0e:	f884 3035 	strb.w	r3, [r4, #53]	; 0x35
 8000a12:	2001      	movs	r0, #1
 8000a14:	bd70      	pop	{r4, r5, r6, pc}
 8000a16:	681a      	ldr	r2, [r3, #0]
 8000a18:	4951      	ldr	r1, [pc, #324]	; (8000b60 <HAL_DMA_Init+0x19c>)
 8000a1a:	4011      	ands	r1, r2
 8000a1c:	68a2      	ldr	r2, [r4, #8]
 8000a1e:	68e0      	ldr	r0, [r4, #12]
 8000a20:	4302      	orrs	r2, r0
 8000a22:	6920      	ldr	r0, [r4, #16]
 8000a24:	4302      	orrs	r2, r0
 8000a26:	6960      	ldr	r0, [r4, #20]
 8000a28:	4302      	orrs	r2, r0
 8000a2a:	69a0      	ldr	r0, [r4, #24]
 8000a2c:	4302      	orrs	r2, r0
 8000a2e:	69e0      	ldr	r0, [r4, #28]
 8000a30:	4302      	orrs	r2, r0
 8000a32:	6a20      	ldr	r0, [r4, #32]
 8000a34:	4302      	orrs	r2, r0
 8000a36:	430a      	orrs	r2, r1
 8000a38:	6a61      	ldr	r1, [r4, #36]	; 0x24
 8000a3a:	2904      	cmp	r1, #4
 8000a3c:	d011      	beq.n	8000a62 <HAL_DMA_Init+0x9e>
 8000a3e:	601a      	str	r2, [r3, #0]
 8000a40:	6826      	ldr	r6, [r4, #0]
 8000a42:	6975      	ldr	r5, [r6, #20]
 8000a44:	f025 0507 	bic.w	r5, r5, #7
 8000a48:	6a63      	ldr	r3, [r4, #36]	; 0x24
 8000a4a:	431d      	orrs	r5, r3
 8000a4c:	2b04      	cmp	r3, #4
 8000a4e:	d00d      	beq.n	8000a6c <HAL_DMA_Init+0xa8>
 8000a50:	6175      	str	r5, [r6, #20]
 8000a52:	4620      	mov	r0, r4
 8000a54:	f7ff feec 	bl	8000830 <DMA_CalcBaseAndBitshift>
 8000a58:	6de2      	ldr	r2, [r4, #92]	; 0x5c
 8000a5a:	233f      	movs	r3, #63	; 0x3f
 8000a5c:	4093      	lsls	r3, r2
 8000a5e:	6083      	str	r3, [r0, #8]
 8000a60:	e046      	b.n	8000af0 <HAL_DMA_Init+0x12c>
 8000a62:	6ae1      	ldr	r1, [r4, #44]	; 0x2c
 8000a64:	6b20      	ldr	r0, [r4, #48]	; 0x30
 8000a66:	4301      	orrs	r1, r0
 8000a68:	430a      	orrs	r2, r1
 8000a6a:	e7e8      	b.n	8000a3e <HAL_DMA_Init+0x7a>
 8000a6c:	6aa3      	ldr	r3, [r4, #40]	; 0x28
 8000a6e:	431d      	orrs	r5, r3
 8000a70:	6ae3      	ldr	r3, [r4, #44]	; 0x2c
 8000a72:	2b00      	cmp	r3, #0
 8000a74:	d0ec      	beq.n	8000a50 <HAL_DMA_Init+0x8c>
 8000a76:	4620      	mov	r0, r4
 8000a78:	f7ff fef6 	bl	8000868 <DMA_CheckFifoParam>
 8000a7c:	2800      	cmp	r0, #0
 8000a7e:	d0e7      	beq.n	8000a50 <HAL_DMA_Init+0x8c>
 8000a80:	2340      	movs	r3, #64	; 0x40
 8000a82:	6563      	str	r3, [r4, #84]	; 0x54
 8000a84:	2001      	movs	r0, #1
 8000a86:	f884 0035 	strb.w	r0, [r4, #53]	; 0x35
 8000a8a:	bd70      	pop	{r4, r5, r6, pc}
 8000a8c:	4b35      	ldr	r3, [pc, #212]	; (8000b64 <HAL_DMA_Init+0x1a0>)
 8000a8e:	4413      	add	r3, r2
 8000a90:	2b8c      	cmp	r3, #140	; 0x8c
 8000a92:	d84c      	bhi.n	8000b2e <HAL_DMA_Init+0x16a>
 8000a94:	2300      	movs	r3, #0
 8000a96:	f884 3034 	strb.w	r3, [r4, #52]	; 0x34
 8000a9a:	2302      	movs	r3, #2
 8000a9c:	f884 3035 	strb.w	r3, [r4, #53]	; 0x35
 8000aa0:	6813      	ldr	r3, [r2, #0]
 8000aa2:	4931      	ldr	r1, [pc, #196]	; (8000b68 <HAL_DMA_Init+0x1a4>)
 8000aa4:	4019      	ands	r1, r3
 8000aa6:	68a3      	ldr	r3, [r4, #8]
 8000aa8:	2b40      	cmp	r3, #64	; 0x40
 8000aaa:	d03e      	beq.n	8000b2a <HAL_DMA_Init+0x166>
 8000aac:	2b80      	cmp	r3, #128	; 0x80
 8000aae:	d039      	beq.n	8000b24 <HAL_DMA_Init+0x160>
 8000ab0:	2300      	movs	r3, #0
 8000ab2:	68e0      	ldr	r0, [r4, #12]
 8000ab4:	ea43 03d0 	orr.w	r3, r3, r0, lsr #3
 8000ab8:	6920      	ldr	r0, [r4, #16]
 8000aba:	ea43 03d0 	orr.w	r3, r3, r0, lsr #3
 8000abe:	6960      	ldr	r0, [r4, #20]
 8000ac0:	ea43 03d0 	orr.w	r3, r3, r0, lsr #3
 8000ac4:	69a0      	ldr	r0, [r4, #24]
 8000ac6:	ea43 03d0 	orr.w	r3, r3, r0, lsr #3
 8000aca:	69e0      	ldr	r0, [r4, #28]
 8000acc:	08c0      	lsrs	r0, r0, #3
 8000ace:	f000 0020 	and.w	r0, r0, #32
 8000ad2:	4303      	orrs	r3, r0
 8000ad4:	6a20      	ldr	r0, [r4, #32]
 8000ad6:	ea43 1310 	orr.w	r3, r3, r0, lsr #4
 8000ada:	430b      	orrs	r3, r1
 8000adc:	6013      	str	r3, [r2, #0]
 8000ade:	6822      	ldr	r2, [r4, #0]
 8000ae0:	4b20      	ldr	r3, [pc, #128]	; (8000b64 <HAL_DMA_Init+0x1a0>)
 8000ae2:	4413      	add	r3, r2
 8000ae4:	4a21      	ldr	r2, [pc, #132]	; (8000b6c <HAL_DMA_Init+0x1a8>)
 8000ae6:	fba2 2303 	umull	r2, r3, r2, r3
 8000aea:	091b      	lsrs	r3, r3, #4
 8000aec:	009b      	lsls	r3, r3, #2
 8000aee:	65e3      	str	r3, [r4, #92]	; 0x5c
 8000af0:	4620      	mov	r0, r4
 8000af2:	f7ff ff03 	bl	80008fc <DMA_CalcDMAMUXChannelBaseAndMask>
 8000af6:	68a3      	ldr	r3, [r4, #8]
 8000af8:	2b80      	cmp	r3, #128	; 0x80
 8000afa:	d01f      	beq.n	8000b3c <HAL_DMA_Init+0x178>
 8000afc:	6e23      	ldr	r3, [r4, #96]	; 0x60
 8000afe:	7922      	ldrb	r2, [r4, #4]
 8000b00:	601a      	str	r2, [r3, #0]
 8000b02:	6e63      	ldr	r3, [r4, #100]	; 0x64
 8000b04:	6ea2      	ldr	r2, [r4, #104]	; 0x68
 8000b06:	605a      	str	r2, [r3, #4]
 8000b08:	6863      	ldr	r3, [r4, #4]
 8000b0a:	3b01      	subs	r3, #1
 8000b0c:	2b07      	cmp	r3, #7
 8000b0e:	d918      	bls.n	8000b42 <HAL_DMA_Init+0x17e>
 8000b10:	2300      	movs	r3, #0
 8000b12:	66e3      	str	r3, [r4, #108]	; 0x6c
 8000b14:	6723      	str	r3, [r4, #112]	; 0x70
 8000b16:	6763      	str	r3, [r4, #116]	; 0x74
 8000b18:	2000      	movs	r0, #0
 8000b1a:	6560      	str	r0, [r4, #84]	; 0x54
 8000b1c:	2301      	movs	r3, #1
 8000b1e:	f884 3035 	strb.w	r3, [r4, #53]	; 0x35
 8000b22:	bd70      	pop	{r4, r5, r6, pc}
 8000b24:	f44f 4380 	mov.w	r3, #16384	; 0x4000
 8000b28:	e7c3      	b.n	8000ab2 <HAL_DMA_Init+0xee>
 8000b2a:	2310      	movs	r3, #16
 8000b2c:	e7c1      	b.n	8000ab2 <HAL_DMA_Init+0xee>
 8000b2e:	2340      	movs	r3, #64	; 0x40
 8000b30:	6563      	str	r3, [r4, #84]	; 0x54
 8000b32:	2303      	movs	r3, #3
 8000b34:	f884 3035 	strb.w	r3, [r4, #53]	; 0x35
 8000b38:	2001      	movs	r0, #1
 8000b3a:	bd70      	pop	{r4, r5, r6, pc}
 8000b3c:	2300      	movs	r3, #0
 8000b3e:	6063      	str	r3, [r4, #4]
 8000b40:	e7dc      	b.n	8000afc <HAL_DMA_Init+0x138>
 8000b42:	4620      	mov	r0, r4
 8000b44:	f7ff ff16 	bl	8000974 <DMA_CalcDMAMUXRequestGenBaseAndMask>
 8000b48:	6ee3      	ldr	r3, [r4, #108]	; 0x6c
 8000b4a:	2200      	movs	r2, #0
 8000b4c:	601a      	str	r2, [r3, #0]
 8000b4e:	6f23      	ldr	r3, [r4, #112]	; 0x70
 8000b50:	6f62      	ldr	r2, [r4, #116]	; 0x74
 8000b52:	605a      	str	r2, [r3, #4]
 8000b54:	e7e0      	b.n	8000b18 <HAL_DMA_Init+0x154>
 8000b56:	2001      	movs	r0, #1
 8000b58:	bd70      	pop	{r4, r5, r6, pc}
 8000b5a:	bf00      	nop
 8000b5c:	bffdfff0 	.word	0xbffdfff0
 8000b60:	fe10803f 	.word	0xfe10803f
 8000b64:	a7fdabf8 	.word	0xa7fdabf8
 8000b68:	ffff800f 	.word	0xffff800f
 8000b6c:	cccccccd 	.word	0xcccccccd

08000b70 <HAL_DMA_Start_IT>:
 8000b70:	2800      	cmp	r0, #0
 8000b72:	d074      	beq.n	8000c5e <HAL_DMA_Start_IT+0xee>
 8000b74:	b538      	push	{r3, r4, r5, lr}
 8000b76:	4604      	mov	r4, r0
 8000b78:	f890 0034 	ldrb.w	r0, [r0, #52]	; 0x34
 8000b7c:	2801      	cmp	r0, #1
 8000b7e:	d070      	beq.n	8000c62 <HAL_DMA_Start_IT+0xf2>
 8000b80:	2001      	movs	r0, #1
 8000b82:	f884 0034 	strb.w	r0, [r4, #52]	; 0x34
 8000b86:	f894 0035 	ldrb.w	r0, [r4, #53]	; 0x35
 8000b8a:	b2c0      	uxtb	r0, r0
 8000b8c:	2801      	cmp	r0, #1
 8000b8e:	d007      	beq.n	8000ba0 <HAL_DMA_Start_IT+0x30>
 8000b90:	2300      	movs	r3, #0
 8000b92:	f884 3034 	strb.w	r3, [r4, #52]	; 0x34
 8000b96:	f44f 6300 	mov.w	r3, #2048	; 0x800
 8000b9a:	6563      	str	r3, [r4, #84]	; 0x54
 8000b9c:	2001      	movs	r0, #1
 8000b9e:	bd38      	pop	{r3, r4, r5, pc}
 8000ba0:	2002      	movs	r0, #2
 8000ba2:	f884 0035 	strb.w	r0, [r4, #53]	; 0x35
 8000ba6:	2000      	movs	r0, #0
 8000ba8:	6560      	str	r0, [r4, #84]	; 0x54
 8000baa:	6820      	ldr	r0, [r4, #0]
 8000bac:	4d2e      	ldr	r5, [pc, #184]	; (8000c68 <HAL_DMA_Start_IT+0xf8>)
 8000bae:	4405      	add	r5, r0
 8000bb0:	f5b5 6f95 	cmp.w	r5, #1192	; 0x4a8
 8000bb4:	d839      	bhi.n	8000c2a <HAL_DMA_Start_IT+0xba>
 8000bb6:	6805      	ldr	r5, [r0, #0]
 8000bb8:	f025 0501 	bic.w	r5, r5, #1
 8000bbc:	6005      	str	r5, [r0, #0]
 8000bbe:	4620      	mov	r0, r4
 8000bc0:	f7ff fdec 	bl	800079c <DMA_SetConfig>
 8000bc4:	6823      	ldr	r3, [r4, #0]
 8000bc6:	4a28      	ldr	r2, [pc, #160]	; (8000c68 <HAL_DMA_Start_IT+0xf8>)
 8000bc8:	441a      	add	r2, r3
 8000bca:	f5b2 6f95 	cmp.w	r2, #1192	; 0x4a8
 8000bce:	d831      	bhi.n	8000c34 <HAL_DMA_Start_IT+0xc4>
 8000bd0:	681a      	ldr	r2, [r3, #0]
 8000bd2:	f022 021e 	bic.w	r2, r2, #30
 8000bd6:	f042 0216 	orr.w	r2, r2, #22
 8000bda:	601a      	str	r2, [r3, #0]
 8000bdc:	6822      	ldr	r2, [r4, #0]
 8000bde:	6953      	ldr	r3, [r2, #20]
 8000be0:	f043 0380 	orr.w	r3, r3, #128	; 0x80
 8000be4:	6153      	str	r3, [r2, #20]
 8000be6:	6c23      	ldr	r3, [r4, #64]	; 0x40
 8000be8:	b123      	cbz	r3, 8000bf4 <HAL_DMA_Start_IT+0x84>
 8000bea:	6822      	ldr	r2, [r4, #0]
 8000bec:	6813      	ldr	r3, [r2, #0]
 8000bee:	f043 0308 	orr.w	r3, r3, #8
 8000bf2:	6013      	str	r3, [r2, #0]
 8000bf4:	6e23      	ldr	r3, [r4, #96]	; 0x60
 8000bf6:	681a      	ldr	r2, [r3, #0]
 8000bf8:	f412 3f80 	tst.w	r2, #65536	; 0x10000
 8000bfc:	d003      	beq.n	8000c06 <HAL_DMA_Start_IT+0x96>
 8000bfe:	681a      	ldr	r2, [r3, #0]
 8000c00:	f442 7280 	orr.w	r2, r2, #256	; 0x100
 8000c04:	601a      	str	r2, [r3, #0]
 8000c06:	6ee3      	ldr	r3, [r4, #108]	; 0x6c
 8000c08:	b11b      	cbz	r3, 8000c12 <HAL_DMA_Start_IT+0xa2>
 8000c0a:	681a      	ldr	r2, [r3, #0]
 8000c0c:	f442 7280 	orr.w	r2, r2, #256	; 0x100
 8000c10:	601a      	str	r2, [r3, #0]
 8000c12:	6823      	ldr	r3, [r4, #0]
 8000c14:	4a14      	ldr	r2, [pc, #80]	; (8000c68 <HAL_DMA_Start_IT+0xf8>)
 8000c16:	441a      	add	r2, r3
 8000c18:	f5b2 6f95 	cmp.w	r2, #1192	; 0x4a8
 8000c1c:	d819      	bhi.n	8000c52 <HAL_DMA_Start_IT+0xe2>
 8000c1e:	681a      	ldr	r2, [r3, #0]
 8000c20:	f042 0201 	orr.w	r2, r2, #1
 8000c24:	601a      	str	r2, [r3, #0]
 8000c26:	2000      	movs	r0, #0
 8000c28:	bd38      	pop	{r3, r4, r5, pc}
 8000c2a:	6805      	ldr	r5, [r0, #0]
 8000c2c:	f025 0501 	bic.w	r5, r5, #1
 8000c30:	6005      	str	r5, [r0, #0]
 8000c32:	e7c4      	b.n	8000bbe <HAL_DMA_Start_IT+0x4e>
 8000c34:	681a      	ldr	r2, [r3, #0]
 8000c36:	f022 020e 	bic.w	r2, r2, #14
 8000c3a:	f042 020a 	orr.w	r2, r2, #10
 8000c3e:	601a      	str	r2, [r3, #0]
 8000c40:	6c23      	ldr	r3, [r4, #64]	; 0x40
 8000c42:	2b00      	cmp	r3, #0
 8000c44:	d0d6      	beq.n	8000bf4 <HAL_DMA_Start_IT+0x84>
 8000c46:	6822      	ldr	r2, [r4, #0]
 8000c48:	6813      	ldr	r3, [r2, #0]
 8000c4a:	f043 0304 	orr.w	r3, r3, #4
 8000c4e:	6013      	str	r3, [r2, #0]
 8000c50:	e7d0      	b.n	8000bf4 <HAL_DMA_Start_IT+0x84>
 8000c52:	681a      	ldr	r2, [r3, #0]
 8000c54:	f042 0201 	orr.w	r2, r2, #1
 8000c58:	601a      	str	r2, [r3, #0]
 8000c5a:	2000      	movs	r0, #0
 8000c5c:	bd38      	pop	{r3, r4, r5, pc}
 8000c5e:	2001      	movs	r0, #1
 8000c60:	4770      	bx	lr
 8000c62:	2002      	movs	r0, #2
 8000c64:	bd38      	pop	{r3, r4, r5, pc}
 8000c66:	bf00      	nop
 8000c68:	bffdfff0 	.word	0xbffdfff0

08000c6c <HAL_DMA_Abort_IT>:
 8000c6c:	2800      	cmp	r0, #0
 8000c6e:	d04e      	beq.n	8000d0e <HAL_DMA_Abort_IT+0xa2>
 8000c70:	b508      	push	{r3, lr}
 8000c72:	4603      	mov	r3, r0
 8000c74:	f890 2035 	ldrb.w	r2, [r0, #53]	; 0x35
 8000c78:	b2d2      	uxtb	r2, r2
 8000c7a:	2a02      	cmp	r2, #2
 8000c7c:	d003      	beq.n	8000c86 <HAL_DMA_Abort_IT+0x1a>
 8000c7e:	2280      	movs	r2, #128	; 0x80
 8000c80:	6542      	str	r2, [r0, #84]	; 0x54
 8000c82:	2001      	movs	r0, #1
 8000c84:	bd08      	pop	{r3, pc}
 8000c86:	6802      	ldr	r2, [r0, #0]
 8000c88:	4923      	ldr	r1, [pc, #140]	; (8000d18 <HAL_DMA_Abort_IT+0xac>)
 8000c8a:	4411      	add	r1, r2
 8000c8c:	f5b1 6f95 	cmp.w	r1, #1192	; 0x4a8
 8000c90:	d92f      	bls.n	8000cf2 <HAL_DMA_Abort_IT+0x86>
 8000c92:	6811      	ldr	r1, [r2, #0]
 8000c94:	f021 010e 	bic.w	r1, r1, #14
 8000c98:	6011      	str	r1, [r2, #0]
 8000c9a:	6801      	ldr	r1, [r0, #0]
 8000c9c:	4a1e      	ldr	r2, [pc, #120]	; (8000d18 <HAL_DMA_Abort_IT+0xac>)
 8000c9e:	440a      	add	r2, r1
 8000ca0:	f5b2 6f95 	cmp.w	r2, #1192	; 0x4a8
 8000ca4:	d82e      	bhi.n	8000d04 <HAL_DMA_Abort_IT+0x98>
 8000ca6:	680a      	ldr	r2, [r1, #0]
 8000ca8:	f022 0201 	bic.w	r2, r2, #1
 8000cac:	600a      	str	r2, [r1, #0]
 8000cae:	6e19      	ldr	r1, [r3, #96]	; 0x60
 8000cb0:	680a      	ldr	r2, [r1, #0]
 8000cb2:	f422 7280 	bic.w	r2, r2, #256	; 0x100
 8000cb6:	600a      	str	r2, [r1, #0]
 8000cb8:	6dd9      	ldr	r1, [r3, #92]	; 0x5c
 8000cba:	2201      	movs	r2, #1
 8000cbc:	408a      	lsls	r2, r1
 8000cbe:	4917      	ldr	r1, [pc, #92]	; (8000d1c <HAL_DMA_Abort_IT+0xb0>)
 8000cc0:	604a      	str	r2, [r1, #4]
 8000cc2:	6e5a      	ldr	r2, [r3, #100]	; 0x64
 8000cc4:	6e99      	ldr	r1, [r3, #104]	; 0x68
 8000cc6:	6051      	str	r1, [r2, #4]
 8000cc8:	6eda      	ldr	r2, [r3, #108]	; 0x6c
 8000cca:	b132      	cbz	r2, 8000cda <HAL_DMA_Abort_IT+0x6e>
 8000ccc:	6811      	ldr	r1, [r2, #0]
 8000cce:	f421 7180 	bic.w	r1, r1, #256	; 0x100
 8000cd2:	6011      	str	r1, [r2, #0]
 8000cd4:	6f1a      	ldr	r2, [r3, #112]	; 0x70
 8000cd6:	6f59      	ldr	r1, [r3, #116]	; 0x74
 8000cd8:	6051      	str	r1, [r2, #4]
 8000cda:	2200      	movs	r2, #0
 8000cdc:	f883 2034 	strb.w	r2, [r3, #52]	; 0x34
 8000ce0:	2201      	movs	r2, #1
 8000ce2:	f883 2035 	strb.w	r2, [r3, #53]	; 0x35
 8000ce6:	6d1a      	ldr	r2, [r3, #80]	; 0x50
 8000ce8:	b19a      	cbz	r2, 8000d12 <HAL_DMA_Abort_IT+0xa6>
 8000cea:	4618      	mov	r0, r3
 8000cec:	4790      	blx	r2
 8000cee:	2000      	movs	r0, #0
 8000cf0:	bd08      	pop	{r3, pc}
 8000cf2:	2104      	movs	r1, #4
 8000cf4:	f880 1035 	strb.w	r1, [r0, #53]	; 0x35
 8000cf8:	6813      	ldr	r3, [r2, #0]
 8000cfa:	f023 0301 	bic.w	r3, r3, #1
 8000cfe:	6013      	str	r3, [r2, #0]
 8000d00:	2000      	movs	r0, #0
 8000d02:	bd08      	pop	{r3, pc}
 8000d04:	680a      	ldr	r2, [r1, #0]
 8000d06:	f022 0201 	bic.w	r2, r2, #1
 8000d0a:	600a      	str	r2, [r1, #0]
 8000d0c:	e7cf      	b.n	8000cae <HAL_DMA_Abort_IT+0x42>
 8000d0e:	2001      	movs	r0, #1
 8000d10:	4770      	bx	lr
 8000d12:	2000      	movs	r0, #0
 8000d14:	bd08      	pop	{r3, pc}
 8000d16:	bf00      	nop
 8000d18:	bffdfff0 	.word	0xbffdfff0
 8000d1c:	58025400 	.word	0x58025400

08000d20 <HAL_DMA_IRQHandler>:
 8000d20:	b5f0      	push	{r4, r5, r6, r7, lr}
 8000d22:	b083      	sub	sp, #12
 8000d24:	4604      	mov	r4, r0
 8000d26:	2300      	movs	r3, #0
 8000d28:	9301      	str	r3, [sp, #4]
 8000d2a:	4b90      	ldr	r3, [pc, #576]	; (8000f6c <HAL_DMA_IRQHandler+0x24c>)
 8000d2c:	681d      	ldr	r5, [r3, #0]
 8000d2e:	4b90      	ldr	r3, [pc, #576]	; (8000f70 <HAL_DMA_IRQHandler+0x250>)
 8000d30:	fba3 3505 	umull	r3, r5, r3, r5
 8000d34:	6d87      	ldr	r7, [r0, #88]	; 0x58
 8000d36:	683e      	ldr	r6, [r7, #0]
 8000d38:	6802      	ldr	r2, [r0, #0]
 8000d3a:	4b8e      	ldr	r3, [pc, #568]	; (8000f74 <HAL_DMA_IRQHandler+0x254>)
 8000d3c:	4413      	add	r3, r2
 8000d3e:	f5b3 6f95 	cmp.w	r3, #1192	; 0x4a8
 8000d42:	f200 811d 	bhi.w	8000f80 <HAL_DMA_IRQHandler+0x260>
 8000d46:	0aad      	lsrs	r5, r5, #10
 8000d48:	6dc1      	ldr	r1, [r0, #92]	; 0x5c
 8000d4a:	2308      	movs	r3, #8
 8000d4c:	408b      	lsls	r3, r1
 8000d4e:	421e      	tst	r6, r3
 8000d50:	d00f      	beq.n	8000d72 <HAL_DMA_IRQHandler+0x52>
 8000d52:	6813      	ldr	r3, [r2, #0]
 8000d54:	f013 0f04 	tst.w	r3, #4
 8000d58:	d00b      	beq.n	8000d72 <HAL_DMA_IRQHandler+0x52>
 8000d5a:	6813      	ldr	r3, [r2, #0]
 8000d5c:	f023 0304 	bic.w	r3, r3, #4
 8000d60:	6013      	str	r3, [r2, #0]
 8000d62:	6dc2      	ldr	r2, [r0, #92]	; 0x5c
 8000d64:	2308      	movs	r3, #8
 8000d66:	4093      	lsls	r3, r2
 8000d68:	60bb      	str	r3, [r7, #8]
 8000d6a:	6d43      	ldr	r3, [r0, #84]	; 0x54
 8000d6c:	f043 0301 	orr.w	r3, r3, #1
 8000d70:	6543      	str	r3, [r0, #84]	; 0x54
 8000d72:	6de2      	ldr	r2, [r4, #92]	; 0x5c
 8000d74:	4b80      	ldr	r3, [pc, #512]	; (8000f78 <HAL_DMA_IRQHandler+0x258>)
 8000d76:	4093      	lsls	r3, r2
 8000d78:	421e      	tst	r6, r3
 8000d7a:	d00e      	beq.n	8000d9a <HAL_DMA_IRQHandler+0x7a>
 8000d7c:	6821      	ldr	r1, [r4, #0]
 8000d7e:	4a7d      	ldr	r2, [pc, #500]	; (8000f74 <HAL_DMA_IRQHandler+0x254>)
 8000d80:	440a      	add	r2, r1
 8000d82:	f5b2 6f95 	cmp.w	r2, #1192	; 0x4a8
 8000d86:	d83a      	bhi.n	8000dfe <HAL_DMA_IRQHandler+0xde>
 8000d88:	694a      	ldr	r2, [r1, #20]
 8000d8a:	f3c2 12c0 	ubfx	r2, r2, #7, #1
 8000d8e:	b122      	cbz	r2, 8000d9a <HAL_DMA_IRQHandler+0x7a>
 8000d90:	60bb      	str	r3, [r7, #8]
 8000d92:	6d63      	ldr	r3, [r4, #84]	; 0x54
 8000d94:	f043 0302 	orr.w	r3, r3, #2
 8000d98:	6563      	str	r3, [r4, #84]	; 0x54
 8000d9a:	6de2      	ldr	r2, [r4, #92]	; 0x5c
 8000d9c:	4b77      	ldr	r3, [pc, #476]	; (8000f7c <HAL_DMA_IRQHandler+0x25c>)
 8000d9e:	4093      	lsls	r3, r2
 8000da0:	421e      	tst	r6, r3
 8000da2:	d00e      	beq.n	8000dc2 <HAL_DMA_IRQHandler+0xa2>
 8000da4:	6821      	ldr	r1, [r4, #0]
 8000da6:	4a73      	ldr	r2, [pc, #460]	; (8000f74 <HAL_DMA_IRQHandler+0x254>)
 8000da8:	440a      	add	r2, r1
 8000daa:	f5b2 6f95 	cmp.w	r2, #1192	; 0x4a8
 8000dae:	d829      	bhi.n	8000e04 <HAL_DMA_IRQHandler+0xe4>
 8000db0:	680a      	ldr	r2, [r1, #0]
 8000db2:	f3c2 0240 	ubfx	r2, r2, #1, #1
 8000db6:	b122      	cbz	r2, 8000dc2 <HAL_DMA_IRQHandler+0xa2>
 8000db8:	60bb      	str	r3, [r7, #8]
 8000dba:	6d63      	ldr	r3, [r4, #84]	; 0x54
 8000dbc:	f043 0304 	orr.w	r3, r3, #4
 8000dc0:	6563      	str	r3, [r4, #84]	; 0x54
 8000dc2:	6de2      	ldr	r2, [r4, #92]	; 0x5c
 8000dc4:	2310      	movs	r3, #16
 8000dc6:	4093      	lsls	r3, r2
 8000dc8:	421e      	tst	r6, r3
 8000dca:	d033      	beq.n	8000e34 <HAL_DMA_IRQHandler+0x114>
 8000dcc:	6821      	ldr	r1, [r4, #0]
 8000dce:	4a69      	ldr	r2, [pc, #420]	; (8000f74 <HAL_DMA_IRQHandler+0x254>)
 8000dd0:	440a      	add	r2, r1
 8000dd2:	f5b2 6f95 	cmp.w	r2, #1192	; 0x4a8
 8000dd6:	d818      	bhi.n	8000e0a <HAL_DMA_IRQHandler+0xea>
 8000dd8:	680a      	ldr	r2, [r1, #0]
 8000dda:	f3c2 02c0 	ubfx	r2, r2, #3, #1
 8000dde:	b34a      	cbz	r2, 8000e34 <HAL_DMA_IRQHandler+0x114>
 8000de0:	60bb      	str	r3, [r7, #8]
 8000de2:	6823      	ldr	r3, [r4, #0]
 8000de4:	681a      	ldr	r2, [r3, #0]
 8000de6:	f412 2f80 	tst.w	r2, #262144	; 0x40000
 8000dea:	d017      	beq.n	8000e1c <HAL_DMA_IRQHandler+0xfc>
 8000dec:	681b      	ldr	r3, [r3, #0]
 8000dee:	f413 2f00 	tst.w	r3, #524288	; 0x80000
 8000df2:	d10e      	bne.n	8000e12 <HAL_DMA_IRQHandler+0xf2>
 8000df4:	6c23      	ldr	r3, [r4, #64]	; 0x40
 8000df6:	b1eb      	cbz	r3, 8000e34 <HAL_DMA_IRQHandler+0x114>
 8000df8:	4620      	mov	r0, r4
 8000dfa:	4798      	blx	r3
 8000dfc:	e01a      	b.n	8000e34 <HAL_DMA_IRQHandler+0x114>
 8000dfe:	680a      	ldr	r2, [r1, #0]
 8000e00:	2200      	movs	r2, #0
 8000e02:	e7c4      	b.n	8000d8e <HAL_DMA_IRQHandler+0x6e>
 8000e04:	680a      	ldr	r2, [r1, #0]
 8000e06:	2200      	movs	r2, #0
 8000e08:	e7d5      	b.n	8000db6 <HAL_DMA_IRQHandler+0x96>
 8000e0a:	680a      	ldr	r2, [r1, #0]
 8000e0c:	f3c2 0280 	ubfx	r2, r2, #2, #1
 8000e10:	e7e5      	b.n	8000dde <HAL_DMA_IRQHandler+0xbe>
 8000e12:	6ca3      	ldr	r3, [r4, #72]	; 0x48
 8000e14:	b173      	cbz	r3, 8000e34 <HAL_DMA_IRQHandler+0x114>
 8000e16:	4620      	mov	r0, r4
 8000e18:	4798      	blx	r3
 8000e1a:	e00b      	b.n	8000e34 <HAL_DMA_IRQHandler+0x114>
 8000e1c:	681a      	ldr	r2, [r3, #0]
 8000e1e:	f412 7f80 	tst.w	r2, #256	; 0x100
 8000e22:	d103      	bne.n	8000e2c <HAL_DMA_IRQHandler+0x10c>
 8000e24:	681a      	ldr	r2, [r3, #0]
 8000e26:	f022 0208 	bic.w	r2, r2, #8
 8000e2a:	601a      	str	r2, [r3, #0]
 8000e2c:	6c23      	ldr	r3, [r4, #64]	; 0x40
 8000e2e:	b10b      	cbz	r3, 8000e34 <HAL_DMA_IRQHandler+0x114>
 8000e30:	4620      	mov	r0, r4
 8000e32:	4798      	blx	r3
 8000e34:	6de2      	ldr	r2, [r4, #92]	; 0x5c
 8000e36:	2320      	movs	r3, #32
 8000e38:	4093      	lsls	r3, r2
 8000e3a:	421e      	tst	r6, r3
 8000e3c:	d05f      	beq.n	8000efe <HAL_DMA_IRQHandler+0x1de>
 8000e3e:	6821      	ldr	r1, [r4, #0]
 8000e40:	4a4c      	ldr	r2, [pc, #304]	; (8000f74 <HAL_DMA_IRQHandler+0x254>)
 8000e42:	440a      	add	r2, r1
 8000e44:	f5b2 6f95 	cmp.w	r2, #1192	; 0x4a8
 8000e48:	d819      	bhi.n	8000e7e <HAL_DMA_IRQHandler+0x15e>
 8000e4a:	680a      	ldr	r2, [r1, #0]
 8000e4c:	f3c2 1200 	ubfx	r2, r2, #4, #1
 8000e50:	2a00      	cmp	r2, #0
 8000e52:	d054      	beq.n	8000efe <HAL_DMA_IRQHandler+0x1de>
 8000e54:	60bb      	str	r3, [r7, #8]
 8000e56:	f894 3035 	ldrb.w	r3, [r4, #53]	; 0x35
 8000e5a:	b2db      	uxtb	r3, r3
 8000e5c:	2b04      	cmp	r3, #4
 8000e5e:	d012      	beq.n	8000e86 <HAL_DMA_IRQHandler+0x166>
 8000e60:	6823      	ldr	r3, [r4, #0]
 8000e62:	681a      	ldr	r2, [r3, #0]
 8000e64:	f412 2f80 	tst.w	r2, #262144	; 0x40000
 8000e68:	d037      	beq.n	8000eda <HAL_DMA_IRQHandler+0x1ba>
 8000e6a:	681b      	ldr	r3, [r3, #0]
 8000e6c:	f413 2f00 	tst.w	r3, #524288	; 0x80000
 8000e70:	d12e      	bne.n	8000ed0 <HAL_DMA_IRQHandler+0x1b0>
 8000e72:	6c63      	ldr	r3, [r4, #68]	; 0x44
 8000e74:	2b00      	cmp	r3, #0
 8000e76:	d042      	beq.n	8000efe <HAL_DMA_IRQHandler+0x1de>
 8000e78:	4620      	mov	r0, r4
 8000e7a:	4798      	blx	r3
 8000e7c:	e03f      	b.n	8000efe <HAL_DMA_IRQHandler+0x1de>
 8000e7e:	680a      	ldr	r2, [r1, #0]
 8000e80:	f3c2 0240 	ubfx	r2, r2, #1, #1
 8000e84:	e7e4      	b.n	8000e50 <HAL_DMA_IRQHandler+0x130>
 8000e86:	6822      	ldr	r2, [r4, #0]
 8000e88:	6813      	ldr	r3, [r2, #0]
 8000e8a:	f023 0316 	bic.w	r3, r3, #22
 8000e8e:	6013      	str	r3, [r2, #0]
 8000e90:	6822      	ldr	r2, [r4, #0]
 8000e92:	6953      	ldr	r3, [r2, #20]
 8000e94:	f023 0380 	bic.w	r3, r3, #128	; 0x80
 8000e98:	6153      	str	r3, [r2, #20]
 8000e9a:	6c23      	ldr	r3, [r4, #64]	; 0x40
 8000e9c:	b1a3      	cbz	r3, 8000ec8 <HAL_DMA_IRQHandler+0x1a8>
 8000e9e:	6822      	ldr	r2, [r4, #0]
 8000ea0:	6813      	ldr	r3, [r2, #0]
 8000ea2:	f023 0308 	bic.w	r3, r3, #8
 8000ea6:	6013      	str	r3, [r2, #0]
 8000ea8:	6de2      	ldr	r2, [r4, #92]	; 0x5c
 8000eaa:	233f      	movs	r3, #63	; 0x3f
 8000eac:	4093      	lsls	r3, r2
 8000eae:	60bb      	str	r3, [r7, #8]
 8000eb0:	2300      	movs	r3, #0
 8000eb2:	f884 3034 	strb.w	r3, [r4, #52]	; 0x34
 8000eb6:	2301      	movs	r3, #1
 8000eb8:	f884 3035 	strb.w	r3, [r4, #53]	; 0x35
 8000ebc:	6d23      	ldr	r3, [r4, #80]	; 0x50
 8000ebe:	2b00      	cmp	r3, #0
 8000ec0:	d049      	beq.n	8000f56 <HAL_DMA_IRQHandler+0x236>
 8000ec2:	4620      	mov	r0, r4
 8000ec4:	4798      	blx	r3
 8000ec6:	e046      	b.n	8000f56 <HAL_DMA_IRQHandler+0x236>
 8000ec8:	6ca3      	ldr	r3, [r4, #72]	; 0x48
 8000eca:	2b00      	cmp	r3, #0
 8000ecc:	d1e7      	bne.n	8000e9e <HAL_DMA_IRQHandler+0x17e>
 8000ece:	e7eb      	b.n	8000ea8 <HAL_DMA_IRQHandler+0x188>
 8000ed0:	6be3      	ldr	r3, [r4, #60]	; 0x3c
 8000ed2:	b1a3      	cbz	r3, 8000efe <HAL_DMA_IRQHandler+0x1de>
 8000ed4:	4620      	mov	r0, r4
 8000ed6:	4798      	blx	r3
 8000ed8:	e011      	b.n	8000efe <HAL_DMA_IRQHandler+0x1de>
 8000eda:	681a      	ldr	r2, [r3, #0]
 8000edc:	f412 7f80 	tst.w	r2, #256	; 0x100
 8000ee0:	d109      	bne.n	8000ef6 <HAL_DMA_IRQHandler+0x1d6>
 8000ee2:	681a      	ldr	r2, [r3, #0]
 8000ee4:	f022 0210 	bic.w	r2, r2, #16
 8000ee8:	601a      	str	r2, [r3, #0]
 8000eea:	2300      	movs	r3, #0
 8000eec:	f884 3034 	strb.w	r3, [r4, #52]	; 0x34
 8000ef0:	2301      	movs	r3, #1
 8000ef2:	f884 3035 	strb.w	r3, [r4, #53]	; 0x35
 8000ef6:	6be3      	ldr	r3, [r4, #60]	; 0x3c
 8000ef8:	b10b      	cbz	r3, 8000efe <HAL_DMA_IRQHandler+0x1de>
 8000efa:	4620      	mov	r0, r4
 8000efc:	4798      	blx	r3
 8000efe:	6d63      	ldr	r3, [r4, #84]	; 0x54
 8000f00:	b34b      	cbz	r3, 8000f56 <HAL_DMA_IRQHandler+0x236>
 8000f02:	6d63      	ldr	r3, [r4, #84]	; 0x54
 8000f04:	f013 0f01 	tst.w	r3, #1
 8000f08:	d021      	beq.n	8000f4e <HAL_DMA_IRQHandler+0x22e>
 8000f0a:	2304      	movs	r3, #4
 8000f0c:	f884 3035 	strb.w	r3, [r4, #53]	; 0x35
 8000f10:	6823      	ldr	r3, [r4, #0]
 8000f12:	4a18      	ldr	r2, [pc, #96]	; (8000f74 <HAL_DMA_IRQHandler+0x254>)
 8000f14:	441a      	add	r2, r3
 8000f16:	f5b2 6f95 	cmp.w	r2, #1192	; 0x4a8
 8000f1a:	d81e      	bhi.n	8000f5a <HAL_DMA_IRQHandler+0x23a>
 8000f1c:	681a      	ldr	r2, [r3, #0]
 8000f1e:	f022 0201 	bic.w	r2, r2, #1
 8000f22:	601a      	str	r2, [r3, #0]
 8000f24:	9b01      	ldr	r3, [sp, #4]
 8000f26:	3301      	adds	r3, #1
 8000f28:	9301      	str	r3, [sp, #4]
 8000f2a:	429d      	cmp	r5, r3
 8000f2c:	d304      	bcc.n	8000f38 <HAL_DMA_IRQHandler+0x218>
 8000f2e:	6823      	ldr	r3, [r4, #0]
 8000f30:	681b      	ldr	r3, [r3, #0]
 8000f32:	f013 0f01 	tst.w	r3, #1
 8000f36:	d1f5      	bne.n	8000f24 <HAL_DMA_IRQHandler+0x204>
 8000f38:	2300      	movs	r3, #0
 8000f3a:	f884 3034 	strb.w	r3, [r4, #52]	; 0x34
 8000f3e:	6823      	ldr	r3, [r4, #0]
 8000f40:	681b      	ldr	r3, [r3, #0]
 8000f42:	f013 0f01 	tst.w	r3, #1
 8000f46:	d00d      	beq.n	8000f64 <HAL_DMA_IRQHandler+0x244>
 8000f48:	2303      	movs	r3, #3
 8000f4a:	f884 3035 	strb.w	r3, [r4, #53]	; 0x35
 8000f4e:	6ce3      	ldr	r3, [r4, #76]	; 0x4c
 8000f50:	b10b      	cbz	r3, 8000f56 <HAL_DMA_IRQHandler+0x236>
 8000f52:	4620      	mov	r0, r4
 8000f54:	4798      	blx	r3
 8000f56:	b003      	add	sp, #12
 8000f58:	bdf0      	pop	{r4, r5, r6, r7, pc}
 8000f5a:	681a      	ldr	r2, [r3, #0]
 8000f5c:	f022 0201 	bic.w	r2, r2, #1
 8000f60:	601a      	str	r2, [r3, #0]
 8000f62:	e7df      	b.n	8000f24 <HAL_DMA_IRQHandler+0x204>
 8000f64:	2301      	movs	r3, #1
 8000f66:	f884 3035 	strb.w	r3, [r4, #53]	; 0x35
 8000f6a:	e7f0      	b.n	8000f4e <HAL_DMA_IRQHandler+0x22e>
 8000f6c:	20000010 	.word	0x20000010
 8000f70:	1b4e81b5 	.word	0x1b4e81b5
 8000f74:	bffdfff0 	.word	0xbffdfff0
 8000f78:	00800001 	.word	0x00800001
 8000f7c:	00800004 	.word	0x00800004
 8000f80:	4b35      	ldr	r3, [pc, #212]	; (8001058 <HAL_DMA_IRQHandler+0x338>)
 8000f82:	4413      	add	r3, r2
 8000f84:	2b8c      	cmp	r3, #140	; 0x8c
 8000f86:	d8e6      	bhi.n	8000f56 <HAL_DMA_IRQHandler+0x236>
 8000f88:	4b34      	ldr	r3, [pc, #208]	; (800105c <HAL_DMA_IRQHandler+0x33c>)
 8000f8a:	6818      	ldr	r0, [r3, #0]
 8000f8c:	6de1      	ldr	r1, [r4, #92]	; 0x5c
 8000f8e:	2304      	movs	r3, #4
 8000f90:	408b      	lsls	r3, r1
 8000f92:	4218      	tst	r0, r3
 8000f94:	d018      	beq.n	8000fc8 <HAL_DMA_IRQHandler+0x2a8>
 8000f96:	6813      	ldr	r3, [r2, #0]
 8000f98:	f013 0f04 	tst.w	r3, #4
 8000f9c:	d014      	beq.n	8000fc8 <HAL_DMA_IRQHandler+0x2a8>
 8000f9e:	6813      	ldr	r3, [r2, #0]
 8000fa0:	f013 0f20 	tst.w	r3, #32
 8000fa4:	d103      	bne.n	8000fae <HAL_DMA_IRQHandler+0x28e>
 8000fa6:	6813      	ldr	r3, [r2, #0]
 8000fa8:	f023 0304 	bic.w	r3, r3, #4
 8000fac:	6013      	str	r3, [r2, #0]
 8000fae:	492b      	ldr	r1, [pc, #172]	; (800105c <HAL_DMA_IRQHandler+0x33c>)
 8000fb0:	684b      	ldr	r3, [r1, #4]
 8000fb2:	6de0      	ldr	r0, [r4, #92]	; 0x5c
 8000fb4:	2204      	movs	r2, #4
 8000fb6:	4082      	lsls	r2, r0
 8000fb8:	4313      	orrs	r3, r2
 8000fba:	604b      	str	r3, [r1, #4]
 8000fbc:	6c23      	ldr	r3, [r4, #64]	; 0x40
 8000fbe:	2b00      	cmp	r3, #0
 8000fc0:	d0c9      	beq.n	8000f56 <HAL_DMA_IRQHandler+0x236>
 8000fc2:	4620      	mov	r0, r4
 8000fc4:	4798      	blx	r3
 8000fc6:	e7c6      	b.n	8000f56 <HAL_DMA_IRQHandler+0x236>
 8000fc8:	4b24      	ldr	r3, [pc, #144]	; (800105c <HAL_DMA_IRQHandler+0x33c>)
 8000fca:	6818      	ldr	r0, [r3, #0]
 8000fcc:	2302      	movs	r3, #2
 8000fce:	408b      	lsls	r3, r1
 8000fd0:	4218      	tst	r0, r3
 8000fd2:	d01e      	beq.n	8001012 <HAL_DMA_IRQHandler+0x2f2>
 8000fd4:	6813      	ldr	r3, [r2, #0]
 8000fd6:	f013 0f02 	tst.w	r3, #2
 8000fda:	d01a      	beq.n	8001012 <HAL_DMA_IRQHandler+0x2f2>
 8000fdc:	6813      	ldr	r3, [r2, #0]
 8000fde:	f013 0f20 	tst.w	r3, #32
 8000fe2:	d109      	bne.n	8000ff8 <HAL_DMA_IRQHandler+0x2d8>
 8000fe4:	6813      	ldr	r3, [r2, #0]
 8000fe6:	f023 030a 	bic.w	r3, r3, #10
 8000fea:	6013      	str	r3, [r2, #0]
 8000fec:	2300      	movs	r3, #0
 8000fee:	f884 3034 	strb.w	r3, [r4, #52]	; 0x34
 8000ff2:	2301      	movs	r3, #1
 8000ff4:	f884 3035 	strb.w	r3, [r4, #53]	; 0x35
 8000ff8:	4918      	ldr	r1, [pc, #96]	; (800105c <HAL_DMA_IRQHandler+0x33c>)
 8000ffa:	684b      	ldr	r3, [r1, #4]
 8000ffc:	6de0      	ldr	r0, [r4, #92]	; 0x5c
 8000ffe:	2202      	movs	r2, #2
 8001000:	4082      	lsls	r2, r0
 8001002:	4313      	orrs	r3, r2
 8001004:	604b      	str	r3, [r1, #4]
 8001006:	6be3      	ldr	r3, [r4, #60]	; 0x3c
 8001008:	2b00      	cmp	r3, #0
 800100a:	d0a4      	beq.n	8000f56 <HAL_DMA_IRQHandler+0x236>
 800100c:	4620      	mov	r0, r4
 800100e:	4798      	blx	r3
 8001010:	e7a1      	b.n	8000f56 <HAL_DMA_IRQHandler+0x236>
 8001012:	4b12      	ldr	r3, [pc, #72]	; (800105c <HAL_DMA_IRQHandler+0x33c>)
 8001014:	6818      	ldr	r0, [r3, #0]
 8001016:	2308      	movs	r3, #8
 8001018:	fa03 f101 	lsl.w	r1, r3, r1
 800101c:	4208      	tst	r0, r1
 800101e:	d09a      	beq.n	8000f56 <HAL_DMA_IRQHandler+0x236>
 8001020:	6813      	ldr	r3, [r2, #0]
 8001022:	f013 0f08 	tst.w	r3, #8
 8001026:	d096      	beq.n	8000f56 <HAL_DMA_IRQHandler+0x236>
 8001028:	6813      	ldr	r3, [r2, #0]
 800102a:	f023 030e 	bic.w	r3, r3, #14
 800102e:	6013      	str	r3, [r2, #0]
 8001030:	480a      	ldr	r0, [pc, #40]	; (800105c <HAL_DMA_IRQHandler+0x33c>)
 8001032:	6842      	ldr	r2, [r0, #4]
 8001034:	6de1      	ldr	r1, [r4, #92]	; 0x5c
 8001036:	2301      	movs	r3, #1
 8001038:	fa03 f101 	lsl.w	r1, r3, r1
 800103c:	430a      	orrs	r2, r1
 800103e:	6042      	str	r2, [r0, #4]
 8001040:	6563      	str	r3, [r4, #84]	; 0x54
 8001042:	2200      	movs	r2, #0
 8001044:	f884 2034 	strb.w	r2, [r4, #52]	; 0x34
 8001048:	f884 3035 	strb.w	r3, [r4, #53]	; 0x35
 800104c:	6ce3      	ldr	r3, [r4, #76]	; 0x4c
 800104e:	2b00      	cmp	r3, #0
 8001050:	d081      	beq.n	8000f56 <HAL_DMA_IRQHandler+0x236>
 8001052:	4620      	mov	r0, r4
 8001054:	4798      	blx	r3
 8001056:	e77e      	b.n	8000f56 <HAL_DMA_IRQHandler+0x236>
 8001058:	a7fdabf8 	.word	0xa7fdabf8
 800105c:	58025400 	.word	0x58025400

08001060 <HAL_DMA_GetError>:
 8001060:	6d40      	ldr	r0, [r0, #84]	; 0x54
 8001062:	4770      	bx	lr

08001064 <ETH_SetMACConfig>:
 8001064:	b430      	push	{r4, r5}
 8001066:	688b      	ldr	r3, [r1, #8]
 8001068:	680a      	ldr	r2, [r1, #0]
 800106a:	4313      	orrs	r3, r2
 800106c:	790a      	ldrb	r2, [r1, #4]
 800106e:	ea43 63c2 	orr.w	r3, r3, r2, lsl #27
 8001072:	7b0a      	ldrb	r2, [r1, #12]
 8001074:	ea43 53c2 	orr.w	r3, r3, r2, lsl #23
 8001078:	7b4a      	ldrb	r2, [r1, #13]
 800107a:	ea43 5382 	orr.w	r3, r3, r2, lsl #22
 800107e:	7b8a      	ldrb	r2, [r1, #14]
 8001080:	ea43 5342 	orr.w	r3, r3, r2, lsl #21
 8001084:	7bca      	ldrb	r2, [r1, #15]
 8001086:	ea43 5302 	orr.w	r3, r3, r2, lsl #20
 800108a:	7c0a      	ldrb	r2, [r1, #16]
 800108c:	2a00      	cmp	r2, #0
 800108e:	f040 80b0 	bne.w	80011f2 <ETH_SetMACConfig+0x18e>
 8001092:	f44f 2200 	mov.w	r2, #524288	; 0x80000
 8001096:	431a      	orrs	r2, r3
 8001098:	7c4b      	ldrb	r3, [r1, #17]
 800109a:	2b00      	cmp	r3, #0
 800109c:	f040 80ab 	bne.w	80011f6 <ETH_SetMACConfig+0x192>
 80010a0:	f44f 3300 	mov.w	r3, #131072	; 0x20000
 80010a4:	4313      	orrs	r3, r2
 80010a6:	7c8a      	ldrb	r2, [r1, #18]
 80010a8:	ea43 4302 	orr.w	r3, r3, r2, lsl #16
 80010ac:	694a      	ldr	r2, [r1, #20]
 80010ae:	4313      	orrs	r3, r2
 80010b0:	698a      	ldr	r2, [r1, #24]
 80010b2:	4313      	orrs	r3, r2
 80010b4:	7f0a      	ldrb	r2, [r1, #28]
 80010b6:	ea43 3302 	orr.w	r3, r3, r2, lsl #12
 80010ba:	7f4a      	ldrb	r2, [r1, #29]
 80010bc:	ea43 23c2 	orr.w	r3, r3, r2, lsl #11
 80010c0:	7f8a      	ldrb	r2, [r1, #30]
 80010c2:	2a00      	cmp	r2, #0
 80010c4:	f040 8099 	bne.w	80011fa <ETH_SetMACConfig+0x196>
 80010c8:	f44f 6280 	mov.w	r2, #1024	; 0x400
 80010cc:	4313      	orrs	r3, r2
 80010ce:	7fca      	ldrb	r2, [r1, #31]
 80010d0:	ea43 2242 	orr.w	r2, r3, r2, lsl #9
 80010d4:	f891 3020 	ldrb.w	r3, [r1, #32]
 80010d8:	2b00      	cmp	r3, #0
 80010da:	f040 8090 	bne.w	80011fe <ETH_SetMACConfig+0x19a>
 80010de:	f44f 7380 	mov.w	r3, #256	; 0x100
 80010e2:	4313      	orrs	r3, r2
 80010e4:	6a4a      	ldr	r2, [r1, #36]	; 0x24
 80010e6:	4313      	orrs	r3, r2
 80010e8:	f891 2028 	ldrb.w	r2, [r1, #40]	; 0x28
 80010ec:	ea43 1302 	orr.w	r3, r3, r2, lsl #4
 80010f0:	6aca      	ldr	r2, [r1, #44]	; 0x2c
 80010f2:	4313      	orrs	r3, r2
 80010f4:	6804      	ldr	r4, [r0, #0]
 80010f6:	6822      	ldr	r2, [r4, #0]
 80010f8:	f022 427f 	bic.w	r2, r2, #4278190080	; 0xff000000
 80010fc:	f422 027b 	bic.w	r2, r2, #16449536	; 0xfb0000
 8001100:	f422 42fe 	bic.w	r2, r2, #32512	; 0x7f00
 8001104:	f022 027c 	bic.w	r2, r2, #124	; 0x7c
 8001108:	4313      	orrs	r3, r2
 800110a:	6023      	str	r3, [r4, #0]
 800110c:	6bca      	ldr	r2, [r1, #60]	; 0x3c
 800110e:	f891 3038 	ldrb.w	r3, [r1, #56]	; 0x38
 8001112:	061b      	lsls	r3, r3, #24
 8001114:	ea43 6342 	orr.w	r3, r3, r2, lsl #25
 8001118:	f891 2030 	ldrb.w	r2, [r1, #48]	; 0x30
 800111c:	ea43 4382 	orr.w	r3, r3, r2, lsl #18
 8001120:	f891 2031 	ldrb.w	r2, [r1, #49]	; 0x31
 8001124:	ea43 4342 	orr.w	r3, r3, r2, lsl #17
 8001128:	f891 2032 	ldrb.w	r2, [r1, #50]	; 0x32
 800112c:	2a00      	cmp	r2, #0
 800112e:	d168      	bne.n	8001202 <ETH_SetMACConfig+0x19e>
 8001130:	f44f 3280 	mov.w	r2, #65536	; 0x10000
 8001134:	4313      	orrs	r3, r2
 8001136:	6b4a      	ldr	r2, [r1, #52]	; 0x34
 8001138:	4313      	orrs	r3, r2
 800113a:	6804      	ldr	r4, [r0, #0]
 800113c:	6862      	ldr	r2, [r4, #4]
 800113e:	f022 527c 	bic.w	r2, r2, #1056964608	; 0x3f000000
 8001142:	f422 22ef 	bic.w	r2, r2, #489472	; 0x77800
 8001146:	f422 62ff 	bic.w	r2, r2, #2040	; 0x7f8
 800114a:	f022 0207 	bic.w	r2, r2, #7
 800114e:	4313      	orrs	r3, r2
 8001150:	6063      	str	r3, [r4, #4]
 8001152:	f891 2040 	ldrb.w	r2, [r1, #64]	; 0x40
 8001156:	6c4b      	ldr	r3, [r1, #68]	; 0x44
 8001158:	ea43 2302 	orr.w	r3, r3, r2, lsl #8
 800115c:	6804      	ldr	r4, [r0, #0]
 800115e:	68e5      	ldr	r5, [r4, #12]
 8001160:	4a2b      	ldr	r2, [pc, #172]	; (8001210 <ETH_SetMACConfig+0x1ac>)
 8001162:	402a      	ands	r2, r5
 8001164:	4313      	orrs	r3, r2
 8001166:	60e3      	str	r3, [r4, #12]
 8001168:	f891 2054 	ldrb.w	r2, [r1, #84]	; 0x54
 800116c:	6d0b      	ldr	r3, [r1, #80]	; 0x50
 800116e:	ea43 0242 	orr.w	r2, r3, r2, lsl #1
 8001172:	f891 304c 	ldrb.w	r3, [r1, #76]	; 0x4c
 8001176:	2b00      	cmp	r3, #0
 8001178:	d145      	bne.n	8001206 <ETH_SetMACConfig+0x1a2>
 800117a:	2380      	movs	r3, #128	; 0x80
 800117c:	4313      	orrs	r3, r2
 800117e:	6c8a      	ldr	r2, [r1, #72]	; 0x48
 8001180:	ea43 4302 	orr.w	r3, r3, r2, lsl #16
 8001184:	6804      	ldr	r4, [r0, #0]
 8001186:	6f22      	ldr	r2, [r4, #112]	; 0x70
 8001188:	f022 02f2 	bic.w	r2, r2, #242	; 0xf2
 800118c:	0412      	lsls	r2, r2, #16
 800118e:	0c12      	lsrs	r2, r2, #16
 8001190:	4313      	orrs	r3, r2
 8001192:	6723      	str	r3, [r4, #112]	; 0x70
 8001194:	f891 3056 	ldrb.w	r3, [r1, #86]	; 0x56
 8001198:	f891 2055 	ldrb.w	r2, [r1, #85]	; 0x55
 800119c:	ea43 0342 	orr.w	r3, r3, r2, lsl #1
 80011a0:	6804      	ldr	r4, [r0, #0]
 80011a2:	f8d4 2090 	ldr.w	r2, [r4, #144]	; 0x90
 80011a6:	f022 0203 	bic.w	r2, r2, #3
 80011aa:	4313      	orrs	r3, r2
 80011ac:	f8c4 3090 	str.w	r3, [r4, #144]	; 0x90
 80011b0:	6802      	ldr	r2, [r0, #0]
 80011b2:	f8d2 3d00 	ldr.w	r3, [r2, #3328]	; 0xd00
 80011b6:	f023 0372 	bic.w	r3, r3, #114	; 0x72
 80011ba:	6d8c      	ldr	r4, [r1, #88]	; 0x58
 80011bc:	4323      	orrs	r3, r4
 80011be:	f8c2 3d00 	str.w	r3, [r2, #3328]	; 0xd00
 80011c2:	6dca      	ldr	r2, [r1, #92]	; 0x5c
 80011c4:	f891 3060 	ldrb.w	r3, [r1, #96]	; 0x60
 80011c8:	b1fb      	cbz	r3, 800120a <ETH_SetMACConfig+0x1a6>
 80011ca:	2300      	movs	r3, #0
 80011cc:	4313      	orrs	r3, r2
 80011ce:	f891 2061 	ldrb.w	r2, [r1, #97]	; 0x61
 80011d2:	ea43 1302 	orr.w	r3, r3, r2, lsl #4
 80011d6:	f891 2062 	ldrb.w	r2, [r1, #98]	; 0x62
 80011da:	ea43 03c2 	orr.w	r3, r3, r2, lsl #3
 80011de:	6801      	ldr	r1, [r0, #0]
 80011e0:	f8d1 2d30 	ldr.w	r2, [r1, #3376]	; 0xd30
 80011e4:	f022 027b 	bic.w	r2, r2, #123	; 0x7b
 80011e8:	4313      	orrs	r3, r2
 80011ea:	f8c1 3d30 	str.w	r3, [r1, #3376]	; 0xd30
 80011ee:	bc30      	pop	{r4, r5}
 80011f0:	4770      	bx	lr
 80011f2:	2200      	movs	r2, #0
 80011f4:	e74f      	b.n	8001096 <ETH_SetMACConfig+0x32>
 80011f6:	2300      	movs	r3, #0
 80011f8:	e754      	b.n	80010a4 <ETH_SetMACConfig+0x40>
 80011fa:	2200      	movs	r2, #0
 80011fc:	e766      	b.n	80010cc <ETH_SetMACConfig+0x68>
 80011fe:	2300      	movs	r3, #0
 8001200:	e76f      	b.n	80010e2 <ETH_SetMACConfig+0x7e>
 8001202:	2200      	movs	r2, #0
 8001204:	e796      	b.n	8001134 <ETH_SetMACConfig+0xd0>
 8001206:	2300      	movs	r3, #0
 8001208:	e7b8      	b.n	800117c <ETH_SetMACConfig+0x118>
 800120a:	2340      	movs	r3, #64	; 0x40
 800120c:	e7de      	b.n	80011cc <ETH_SetMACConfig+0x168>
 800120e:	bf00      	nop
 8001210:	fffffef0 	.word	0xfffffef0

08001214 <ETH_SetDMAConfig>:
 8001214:	b470      	push	{r4, r5, r6}
 8001216:	6802      	ldr	r2, [r0, #0]
 8001218:	f502 5280 	add.w	r2, r2, #4096	; 0x1000
 800121c:	6814      	ldr	r4, [r2, #0]
 800121e:	4b1e      	ldr	r3, [pc, #120]	; (8001298 <ETH_SetDMAConfig+0x84>)
 8001220:	4023      	ands	r3, r4
 8001222:	680c      	ldr	r4, [r1, #0]
 8001224:	4323      	orrs	r3, r4
 8001226:	6013      	str	r3, [r2, #0]
 8001228:	790a      	ldrb	r2, [r1, #4]
 800122a:	688b      	ldr	r3, [r1, #8]
 800122c:	ea43 3302 	orr.w	r3, r3, r2, lsl #12
 8001230:	7b0a      	ldrb	r2, [r1, #12]
 8001232:	ea43 33c2 	orr.w	r3, r3, r2, lsl #15
 8001236:	6805      	ldr	r5, [r0, #0]
 8001238:	f241 0404 	movw	r4, #4100	; 0x1004
 800123c:	592e      	ldr	r6, [r5, r4]
 800123e:	4a17      	ldr	r2, [pc, #92]	; (800129c <ETH_SetDMAConfig+0x88>)
 8001240:	4032      	ands	r2, r6
 8001242:	4313      	orrs	r3, r2
 8001244:	512b      	str	r3, [r5, r4]
 8001246:	7b4a      	ldrb	r2, [r1, #13]
 8001248:	6a0b      	ldr	r3, [r1, #32]
 800124a:	ea43 4302 	orr.w	r3, r3, r2, lsl #16
 800124e:	6802      	ldr	r2, [r0, #0]
 8001250:	f502 5288 	add.w	r2, r2, #4352	; 0x1100
 8001254:	6815      	ldr	r5, [r2, #0]
 8001256:	4c12      	ldr	r4, [pc, #72]	; (80012a0 <ETH_SetDMAConfig+0x8c>)
 8001258:	402c      	ands	r4, r5
 800125a:	4323      	orrs	r3, r4
 800125c:	6013      	str	r3, [r2, #0]
 800125e:	690b      	ldr	r3, [r1, #16]
 8001260:	7d0a      	ldrb	r2, [r1, #20]
 8001262:	ea43 1302 	orr.w	r3, r3, r2, lsl #4
 8001266:	7f4a      	ldrb	r2, [r1, #29]
 8001268:	ea43 3302 	orr.w	r3, r3, r2, lsl #12
 800126c:	6805      	ldr	r5, [r0, #0]
 800126e:	f241 1404 	movw	r4, #4356	; 0x1104
 8001272:	592e      	ldr	r6, [r5, r4]
 8001274:	4a0b      	ldr	r2, [pc, #44]	; (80012a4 <ETH_SetDMAConfig+0x90>)
 8001276:	4032      	ands	r2, r6
 8001278:	4313      	orrs	r3, r2
 800127a:	512b      	str	r3, [r5, r4]
 800127c:	7f0a      	ldrb	r2, [r1, #28]
 800127e:	698b      	ldr	r3, [r1, #24]
 8001280:	ea43 73c2 	orr.w	r3, r3, r2, lsl #31
 8001284:	6800      	ldr	r0, [r0, #0]
 8001286:	f241 1108 	movw	r1, #4360	; 0x1108
 800128a:	5844      	ldr	r4, [r0, r1]
 800128c:	4a06      	ldr	r2, [pc, #24]	; (80012a8 <ETH_SetDMAConfig+0x94>)
 800128e:	4022      	ands	r2, r4
 8001290:	4313      	orrs	r3, r2
 8001292:	5043      	str	r3, [r0, r1]
 8001294:	bc70      	pop	{r4, r5, r6}
 8001296:	4770      	bx	lr
 8001298:	ffff87fd 	.word	0xffff87fd
 800129c:	ffff2ffe 	.word	0xffff2ffe
 80012a0:	fffec000 	.word	0xfffec000
 80012a4:	ffc0efef 	.word	0xffc0efef
 80012a8:	7fc0ffff 	.word	0x7fc0ffff

080012ac <ETH_MACDMAConfig>:
 80012ac:	b570      	push	{r4, r5, r6, lr}
 80012ae:	b0a2      	sub	sp, #136	; 0x88
 80012b0:	4606      	mov	r6, r0
 80012b2:	2501      	movs	r5, #1
 80012b4:	f88d 5033 	strb.w	r5, [sp, #51]	; 0x33
 80012b8:	2400      	movs	r4, #0
 80012ba:	9412      	str	r4, [sp, #72]	; 0x48
 80012bc:	f88d 4041 	strb.w	r4, [sp, #65]	; 0x41
 80012c0:	f88d 4043 	strb.w	r4, [sp, #67]	; 0x43
 80012c4:	f88d 5028 	strb.w	r5, [sp, #40]	; 0x28
 80012c8:	f88d 5056 	strb.w	r5, [sp, #86]	; 0x56
 80012cc:	f88d 5032 	strb.w	r5, [sp, #50]	; 0x32
 80012d0:	f88d 404c 	strb.w	r4, [sp, #76]	; 0x4c
 80012d4:	f88d 5084 	strb.w	r5, [sp, #132]	; 0x84
 80012d8:	f44f 5300 	mov.w	r3, #8192	; 0x2000
 80012dc:	930f      	str	r3, [sp, #60]	; 0x3c
 80012de:	f88d 405c 	strb.w	r4, [sp, #92]	; 0x5c
 80012e2:	9418      	str	r4, [sp, #96]	; 0x60
 80012e4:	f88d 4085 	strb.w	r4, [sp, #133]	; 0x85
 80012e8:	f88d 4086 	strb.w	r4, [sp, #134]	; 0x86
 80012ec:	f44f 63c3 	mov.w	r3, #1560	; 0x618
 80012f0:	9316      	str	r3, [sp, #88]	; 0x58
 80012f2:	f88d 4030 	strb.w	r4, [sp, #48]	; 0x30
 80012f6:	940b      	str	r4, [sp, #44]	; 0x2c
 80012f8:	f88d 5035 	strb.w	r5, [sp, #53]	; 0x35
 80012fc:	f88d 4036 	strb.w	r4, [sp, #54]	; 0x36
 8001300:	f88d 4040 	strb.w	r4, [sp, #64]	; 0x40
 8001304:	941d      	str	r4, [sp, #116]	; 0x74
 8001306:	941b      	str	r4, [sp, #108]	; 0x6c
 8001308:	9414      	str	r4, [sp, #80]	; 0x50
 800130a:	f88d 4064 	strb.w	r4, [sp, #100]	; 0x64
 800130e:	f88d 407a 	strb.w	r4, [sp, #122]	; 0x7a
 8001312:	f88d 5042 	strb.w	r5, [sp, #66]	; 0x42
 8001316:	2320      	movs	r3, #32
 8001318:	9320      	str	r3, [sp, #128]	; 0x80
 800131a:	f88d 5044 	strb.w	r5, [sp, #68]	; 0x44
 800131e:	f88d 4055 	strb.w	r4, [sp, #85]	; 0x55
 8001322:	f04f 5340 	mov.w	r3, #805306368	; 0x30000000
 8001326:	9309      	str	r3, [sp, #36]	; 0x24
 8001328:	f44f 4380 	mov.w	r3, #16384	; 0x4000
 800132c:	930e      	str	r3, [sp, #56]	; 0x38
 800132e:	f88d 4031 	strb.w	r4, [sp, #49]	; 0x31
 8001332:	2302      	movs	r3, #2
 8001334:	931f      	str	r3, [sp, #124]	; 0x7c
 8001336:	f88d 4078 	strb.w	r4, [sp, #120]	; 0x78
 800133a:	f88d 4079 	strb.w	r4, [sp, #121]	; 0x79
 800133e:	f88d 4054 	strb.w	r4, [sp, #84]	; 0x54
 8001342:	f88d 5034 	strb.w	r5, [sp, #52]	; 0x34
 8001346:	941a      	str	r4, [sp, #104]	; 0x68
 8001348:	f88d 5070 	strb.w	r5, [sp, #112]	; 0x70
 800134c:	a909      	add	r1, sp, #36	; 0x24
 800134e:	f7ff fe89 	bl	8001064 <ETH_SetMACConfig>
 8001352:	f88d 5004 	strb.w	r5, [sp, #4]
 8001356:	9502      	str	r5, [sp, #8]
 8001358:	9400      	str	r4, [sp, #0]
 800135a:	f88d 401c 	strb.w	r4, [sp, #28]
 800135e:	f88d 400d 	strb.w	r4, [sp, #13]
 8001362:	f88d 400c 	strb.w	r4, [sp, #12]
 8001366:	f44f 1300 	mov.w	r3, #2097152	; 0x200000
 800136a:	9306      	str	r3, [sp, #24]
 800136c:	f88d 4014 	strb.w	r4, [sp, #20]
 8001370:	9304      	str	r3, [sp, #16]
 8001372:	f88d 401d 	strb.w	r4, [sp, #29]
 8001376:	f44f 7306 	mov.w	r3, #536	; 0x218
 800137a:	9308      	str	r3, [sp, #32]
 800137c:	4669      	mov	r1, sp
 800137e:	4630      	mov	r0, r6
 8001380:	f7ff ff48 	bl	8001214 <ETH_SetDMAConfig>
 8001384:	b022      	add	sp, #136	; 0x88
 8001386:	bd70      	pop	{r4, r5, r6, pc}

08001388 <ETH_DMATxDescListInit>:
 8001388:	b430      	push	{r4, r5}
 800138a:	2100      	movs	r1, #0
 800138c:	e019      	b.n	80013c2 <ETH_DMATxDescListInit+0x3a>
 800138e:	68c5      	ldr	r5, [r0, #12]
 8001390:	eb01 0341 	add.w	r3, r1, r1, lsl #1
 8001394:	00dc      	lsls	r4, r3, #3
 8001396:	192b      	adds	r3, r5, r4
 8001398:	2200      	movs	r2, #0
 800139a:	552a      	strb	r2, [r5, r4]
 800139c:	705a      	strb	r2, [r3, #1]
 800139e:	709a      	strb	r2, [r3, #2]
 80013a0:	70da      	strb	r2, [r3, #3]
 80013a2:	711a      	strb	r2, [r3, #4]
 80013a4:	715a      	strb	r2, [r3, #5]
 80013a6:	719a      	strb	r2, [r3, #6]
 80013a8:	71da      	strb	r2, [r3, #7]
 80013aa:	721a      	strb	r2, [r3, #8]
 80013ac:	725a      	strb	r2, [r3, #9]
 80013ae:	729a      	strb	r2, [r3, #10]
 80013b0:	72da      	strb	r2, [r3, #11]
 80013b2:	731a      	strb	r2, [r3, #12]
 80013b4:	735a      	strb	r2, [r3, #13]
 80013b6:	739a      	strb	r2, [r3, #14]
 80013b8:	73da      	strb	r2, [r3, #15]
 80013ba:	1d8a      	adds	r2, r1, #6
 80013bc:	f840 3022 	str.w	r3, [r0, r2, lsl #2]
 80013c0:	3101      	adds	r1, #1
 80013c2:	2903      	cmp	r1, #3
 80013c4:	d9e3      	bls.n	800138e <ETH_DMATxDescListInit+0x6>
 80013c6:	2300      	movs	r3, #0
 80013c8:	6283      	str	r3, [r0, #40]	; 0x28
 80013ca:	6802      	ldr	r2, [r0, #0]
 80013cc:	2103      	movs	r1, #3
 80013ce:	f241 132c 	movw	r3, #4396	; 0x112c
 80013d2:	50d1      	str	r1, [r2, r3]
 80013d4:	6802      	ldr	r2, [r0, #0]
 80013d6:	68c1      	ldr	r1, [r0, #12]
 80013d8:	f241 1314 	movw	r3, #4372	; 0x1114
 80013dc:	50d1      	str	r1, [r2, r3]
 80013de:	6803      	ldr	r3, [r0, #0]
 80013e0:	68c2      	ldr	r2, [r0, #12]
 80013e2:	f503 5389 	add.w	r3, r3, #4384	; 0x1120
 80013e6:	601a      	str	r2, [r3, #0]
 80013e8:	bc30      	pop	{r4, r5}
 80013ea:	4770      	bx	lr

080013ec <ETH_DMARxDescListInit>:
 80013ec:	b430      	push	{r4, r5}
 80013ee:	2100      	movs	r1, #0
 80013f0:	e023      	b.n	800143a <ETH_DMARxDescListInit+0x4e>
 80013f2:	6905      	ldr	r5, [r0, #16]
 80013f4:	eb01 0341 	add.w	r3, r1, r1, lsl #1
 80013f8:	00dc      	lsls	r4, r3, #3
 80013fa:	192b      	adds	r3, r5, r4
 80013fc:	2200      	movs	r2, #0
 80013fe:	552a      	strb	r2, [r5, r4]
 8001400:	705a      	strb	r2, [r3, #1]
 8001402:	709a      	strb	r2, [r3, #2]
 8001404:	70da      	strb	r2, [r3, #3]
 8001406:	711a      	strb	r2, [r3, #4]
 8001408:	715a      	strb	r2, [r3, #5]
 800140a:	719a      	strb	r2, [r3, #6]
 800140c:	71da      	strb	r2, [r3, #7]
 800140e:	721a      	strb	r2, [r3, #8]
 8001410:	725a      	strb	r2, [r3, #9]
 8001412:	729a      	strb	r2, [r3, #10]
 8001414:	72da      	strb	r2, [r3, #11]
 8001416:	731a      	strb	r2, [r3, #12]
 8001418:	735a      	strb	r2, [r3, #13]
 800141a:	739a      	strb	r2, [r3, #14]
 800141c:	73da      	strb	r2, [r3, #15]
 800141e:	741a      	strb	r2, [r3, #16]
 8001420:	745a      	strb	r2, [r3, #17]
 8001422:	749a      	strb	r2, [r3, #18]
 8001424:	74da      	strb	r2, [r3, #19]
 8001426:	751a      	strb	r2, [r3, #20]
 8001428:	755a      	strb	r2, [r3, #21]
 800142a:	759a      	strb	r2, [r3, #22]
 800142c:	75da      	strb	r2, [r3, #23]
 800142e:	f101 020a 	add.w	r2, r1, #10
 8001432:	eb00 0282 	add.w	r2, r0, r2, lsl #2
 8001436:	6053      	str	r3, [r2, #4]
 8001438:	3101      	adds	r1, #1
 800143a:	2903      	cmp	r1, #3
 800143c:	d9d9      	bls.n	80013f2 <ETH_DMARxDescListInit+0x6>
 800143e:	2300      	movs	r3, #0
 8001440:	63c3      	str	r3, [r0, #60]	; 0x3c
 8001442:	6403      	str	r3, [r0, #64]	; 0x40
 8001444:	6443      	str	r3, [r0, #68]	; 0x44
 8001446:	64c3      	str	r3, [r0, #76]	; 0x4c
 8001448:	6483      	str	r3, [r0, #72]	; 0x48
 800144a:	6802      	ldr	r2, [r0, #0]
 800144c:	2103      	movs	r1, #3
 800144e:	f241 1330 	movw	r3, #4400	; 0x1130
 8001452:	50d1      	str	r1, [r2, r3]
 8001454:	6802      	ldr	r2, [r0, #0]
 8001456:	6901      	ldr	r1, [r0, #16]
 8001458:	f241 131c 	movw	r3, #4380	; 0x111c
 800145c:	50d1      	str	r1, [r2, r3]
 800145e:	6801      	ldr	r1, [r0, #0]
 8001460:	6903      	ldr	r3, [r0, #16]
 8001462:	3348      	adds	r3, #72	; 0x48
 8001464:	f241 1228 	movw	r2, #4392	; 0x1128
 8001468:	508b      	str	r3, [r1, r2]
 800146a:	bc30      	pop	{r4, r5}
 800146c:	4770      	bx	lr
	...

08001470 <ETH_MAC_MDIO_ClkConfig>:
 8001470:	b538      	push	{r3, r4, r5, lr}
 8001472:	4605      	mov	r5, r0
 8001474:	6803      	ldr	r3, [r0, #0]
 8001476:	f8d3 4200 	ldr.w	r4, [r3, #512]	; 0x200
 800147a:	f424 6470 	bic.w	r4, r4, #3840	; 0xf00
 800147e:	f000 ff11 	bl	80022a4 <HAL_RCC_GetHCLKFreq>
 8001482:	4b11      	ldr	r3, [pc, #68]	; (80014c8 <ETH_MAC_MDIO_ClkConfig+0x58>)
 8001484:	4403      	add	r3, r0
 8001486:	4a11      	ldr	r2, [pc, #68]	; (80014cc <ETH_MAC_MDIO_ClkConfig+0x5c>)
 8001488:	4293      	cmp	r3, r2
 800148a:	d911      	bls.n	80014b0 <ETH_MAC_MDIO_ClkConfig+0x40>
 800148c:	4b10      	ldr	r3, [pc, #64]	; (80014d0 <ETH_MAC_MDIO_ClkConfig+0x60>)
 800148e:	4403      	add	r3, r0
 8001490:	4a10      	ldr	r2, [pc, #64]	; (80014d4 <ETH_MAC_MDIO_ClkConfig+0x64>)
 8001492:	4293      	cmp	r3, r2
 8001494:	d912      	bls.n	80014bc <ETH_MAC_MDIO_ClkConfig+0x4c>
 8001496:	4b10      	ldr	r3, [pc, #64]	; (80014d8 <ETH_MAC_MDIO_ClkConfig+0x68>)
 8001498:	4403      	add	r3, r0
 800149a:	4a10      	ldr	r2, [pc, #64]	; (80014dc <ETH_MAC_MDIO_ClkConfig+0x6c>)
 800149c:	4293      	cmp	r3, r2
 800149e:	d909      	bls.n	80014b4 <ETH_MAC_MDIO_ClkConfig+0x44>
 80014a0:	4b0f      	ldr	r3, [pc, #60]	; (80014e0 <ETH_MAC_MDIO_ClkConfig+0x70>)
 80014a2:	4403      	add	r3, r0
 80014a4:	4a0f      	ldr	r2, [pc, #60]	; (80014e4 <ETH_MAC_MDIO_ClkConfig+0x74>)
 80014a6:	4293      	cmp	r3, r2
 80014a8:	d90b      	bls.n	80014c2 <ETH_MAC_MDIO_ClkConfig+0x52>
 80014aa:	f444 6480 	orr.w	r4, r4, #1024	; 0x400
 80014ae:	e001      	b.n	80014b4 <ETH_MAC_MDIO_ClkConfig+0x44>
 80014b0:	f444 7400 	orr.w	r4, r4, #512	; 0x200
 80014b4:	682b      	ldr	r3, [r5, #0]
 80014b6:	f8c3 4200 	str.w	r4, [r3, #512]	; 0x200
 80014ba:	bd38      	pop	{r3, r4, r5, pc}
 80014bc:	f444 7440 	orr.w	r4, r4, #768	; 0x300
 80014c0:	e7f8      	b.n	80014b4 <ETH_MAC_MDIO_ClkConfig+0x44>
 80014c2:	f444 7480 	orr.w	r4, r4, #256	; 0x100
 80014c6:	e7f5      	b.n	80014b4 <ETH_MAC_MDIO_ClkConfig+0x44>
 80014c8:	feced300 	.word	0xfeced300
 80014cc:	00e4e1bf 	.word	0x00e4e1bf
 80014d0:	fde9f140 	.word	0xfde9f140
 80014d4:	017d783f 	.word	0x017d783f
 80014d8:	fc6c7900 	.word	0xfc6c7900
 80014dc:	026259ff 	.word	0x026259ff
 80014e0:	fa0a1f00 	.word	0xfa0a1f00
 80014e4:	02faf07f 	.word	0x02faf07f

080014e8 <HAL_ETH_Init>:
 80014e8:	2800      	cmp	r0, #0
 80014ea:	f000 8092 	beq.w	8001612 <HAL_ETH_Init+0x12a>
 80014ee:	b530      	push	{r4, r5, lr}
 80014f0:	b083      	sub	sp, #12
 80014f2:	4604      	mov	r4, r0
 80014f4:	f890 3051 	ldrb.w	r3, [r0, #81]	; 0x51
 80014f8:	b39b      	cbz	r3, 8001562 <HAL_ETH_Init+0x7a>
 80014fa:	2323      	movs	r3, #35	; 0x23
 80014fc:	f884 3051 	strb.w	r3, [r4, #81]	; 0x51
 8001500:	4b45      	ldr	r3, [pc, #276]	; (8001618 <HAL_ETH_Init+0x130>)
 8001502:	f8d3 20f4 	ldr.w	r2, [r3, #244]	; 0xf4
 8001506:	f042 0202 	orr.w	r2, r2, #2
 800150a:	f8c3 20f4 	str.w	r2, [r3, #244]	; 0xf4
 800150e:	f8d3 30f4 	ldr.w	r3, [r3, #244]	; 0xf4
 8001512:	f003 0302 	and.w	r3, r3, #2
 8001516:	9301      	str	r3, [sp, #4]
 8001518:	9b01      	ldr	r3, [sp, #4]
 800151a:	7a23      	ldrb	r3, [r4, #8]
 800151c:	bb23      	cbnz	r3, 8001568 <HAL_ETH_Init+0x80>
 800151e:	2000      	movs	r0, #0
 8001520:	f7ff f8b6 	bl	8000690 <HAL_SYSCFG_ETHInterfaceSelect>
 8001524:	6823      	ldr	r3, [r4, #0]
 8001526:	f503 5380 	add.w	r3, r3, #4096	; 0x1000
 800152a:	681a      	ldr	r2, [r3, #0]
 800152c:	f042 0201 	orr.w	r2, r2, #1
 8001530:	601a      	str	r2, [r3, #0]
 8001532:	f7ff f893 	bl	800065c <HAL_GetTick>
 8001536:	4605      	mov	r5, r0
 8001538:	6823      	ldr	r3, [r4, #0]
 800153a:	f503 5380 	add.w	r3, r3, #4096	; 0x1000
 800153e:	681b      	ldr	r3, [r3, #0]
 8001540:	f013 0f01 	tst.w	r3, #1
 8001544:	d015      	beq.n	8001572 <HAL_ETH_Init+0x8a>
 8001546:	f7ff f889 	bl	800065c <HAL_GetTick>
 800154a:	1b40      	subs	r0, r0, r5
 800154c:	f5b0 7ffa 	cmp.w	r0, #500	; 0x1f4
 8001550:	d9f2      	bls.n	8001538 <HAL_ETH_Init+0x50>
 8001552:	2304      	movs	r3, #4
 8001554:	6563      	str	r3, [r4, #84]	; 0x54
 8001556:	23e0      	movs	r3, #224	; 0xe0
 8001558:	f884 3051 	strb.w	r3, [r4, #81]	; 0x51
 800155c:	2001      	movs	r0, #1
 800155e:	b003      	add	sp, #12
 8001560:	bd30      	pop	{r4, r5, pc}
 8001562:	f003 fc07 	bl	8004d74 <HAL_ETH_MspInit>
 8001566:	e7c8      	b.n	80014fa <HAL_ETH_Init+0x12>
 8001568:	f44f 0000 	mov.w	r0, #8388608	; 0x800000
 800156c:	f7ff f890 	bl	8000690 <HAL_SYSCFG_ETHInterfaceSelect>
 8001570:	e7d8      	b.n	8001524 <HAL_ETH_Init+0x3c>
 8001572:	4620      	mov	r0, r4
 8001574:	f7ff ff7c 	bl	8001470 <ETH_MAC_MDIO_ClkConfig>
 8001578:	6825      	ldr	r5, [r4, #0]
 800157a:	f000 fe93 	bl	80022a4 <HAL_RCC_GetHCLKFreq>
 800157e:	4b27      	ldr	r3, [pc, #156]	; (800161c <HAL_ETH_Init+0x134>)
 8001580:	fba3 2300 	umull	r2, r3, r3, r0
 8001584:	0c9b      	lsrs	r3, r3, #18
 8001586:	3b01      	subs	r3, #1
 8001588:	f8c5 30dc 	str.w	r3, [r5, #220]	; 0xdc
 800158c:	4620      	mov	r0, r4
 800158e:	f7ff fe8d 	bl	80012ac <ETH_MACDMAConfig>
 8001592:	6822      	ldr	r2, [r4, #0]
 8001594:	f502 5288 	add.w	r2, r2, #4352	; 0x1100
 8001598:	6813      	ldr	r3, [r2, #0]
 800159a:	f423 13e0 	bic.w	r3, r3, #1835008	; 0x1c0000
 800159e:	f443 2300 	orr.w	r3, r3, #524288	; 0x80000
 80015a2:	6013      	str	r3, [r2, #0]
 80015a4:	6963      	ldr	r3, [r4, #20]
 80015a6:	f013 0f03 	tst.w	r3, #3
 80015aa:	d005      	beq.n	80015b8 <HAL_ETH_Init+0xd0>
 80015ac:	2001      	movs	r0, #1
 80015ae:	6560      	str	r0, [r4, #84]	; 0x54
 80015b0:	23e0      	movs	r3, #224	; 0xe0
 80015b2:	f884 3051 	strb.w	r3, [r4, #81]	; 0x51
 80015b6:	e7d2      	b.n	800155e <HAL_ETH_Init+0x76>
 80015b8:	6820      	ldr	r0, [r4, #0]
 80015ba:	f241 1108 	movw	r1, #4360	; 0x1108
 80015be:	5845      	ldr	r5, [r0, r1]
 80015c0:	4a17      	ldr	r2, [pc, #92]	; (8001620 <HAL_ETH_Init+0x138>)
 80015c2:	402a      	ands	r2, r5
 80015c4:	ea42 0343 	orr.w	r3, r2, r3, lsl #1
 80015c8:	5043      	str	r3, [r0, r1]
 80015ca:	4620      	mov	r0, r4
 80015cc:	f7ff fedc 	bl	8001388 <ETH_DMATxDescListInit>
 80015d0:	4620      	mov	r0, r4
 80015d2:	f7ff ff0b 	bl	80013ec <ETH_DMARxDescListInit>
 80015d6:	6821      	ldr	r1, [r4, #0]
 80015d8:	6862      	ldr	r2, [r4, #4]
 80015da:	7950      	ldrb	r0, [r2, #5]
 80015dc:	7913      	ldrb	r3, [r2, #4]
 80015de:	ea43 2300 	orr.w	r3, r3, r0, lsl #8
 80015e2:	f8c1 3300 	str.w	r3, [r1, #768]	; 0x300
 80015e6:	6821      	ldr	r1, [r4, #0]
 80015e8:	6862      	ldr	r2, [r4, #4]
 80015ea:	78d0      	ldrb	r0, [r2, #3]
 80015ec:	7893      	ldrb	r3, [r2, #2]
 80015ee:	041b      	lsls	r3, r3, #16
 80015f0:	ea43 6300 	orr.w	r3, r3, r0, lsl #24
 80015f4:	7850      	ldrb	r0, [r2, #1]
 80015f6:	ea43 2300 	orr.w	r3, r3, r0, lsl #8
 80015fa:	7812      	ldrb	r2, [r2, #0]
 80015fc:	4313      	orrs	r3, r2
 80015fe:	f8c1 3304 	str.w	r3, [r1, #772]	; 0x304
 8001602:	2000      	movs	r0, #0
 8001604:	6560      	str	r0, [r4, #84]	; 0x54
 8001606:	2310      	movs	r3, #16
 8001608:	f884 3051 	strb.w	r3, [r4, #81]	; 0x51
 800160c:	f884 3052 	strb.w	r3, [r4, #82]	; 0x52
 8001610:	e7a5      	b.n	800155e <HAL_ETH_Init+0x76>
 8001612:	2001      	movs	r0, #1
 8001614:	4770      	bx	lr
 8001616:	bf00      	nop
 8001618:	58024400 	.word	0x58024400
 800161c:	431bde83 	.word	0x431bde83
 8001620:	ffff8001 	.word	0xffff8001

08001624 <HAL_GPIO_Init>:
 8001624:	b5f0      	push	{r4, r5, r6, r7, lr}
 8001626:	b083      	sub	sp, #12
 8001628:	2400      	movs	r4, #0
 800162a:	e03b      	b.n	80016a4 <HAL_GPIO_Init+0x80>
 800162c:	2609      	movs	r6, #9
 800162e:	e000      	b.n	8001632 <HAL_GPIO_Init+0xe>
 8001630:	2600      	movs	r6, #0
 8001632:	fa06 f60e 	lsl.w	r6, r6, lr
 8001636:	4332      	orrs	r2, r6
 8001638:	3302      	adds	r3, #2
 800163a:	4e70      	ldr	r6, [pc, #448]	; (80017fc <HAL_GPIO_Init+0x1d8>)
 800163c:	f846 2023 	str.w	r2, [r6, r3, lsl #2]
 8001640:	4b6f      	ldr	r3, [pc, #444]	; (8001800 <HAL_GPIO_Init+0x1dc>)
 8001642:	681a      	ldr	r2, [r3, #0]
 8001644:	43eb      	mvns	r3, r5
 8001646:	ea02 0603 	and.w	r6, r2, r3
 800164a:	684f      	ldr	r7, [r1, #4]
 800164c:	f417 3f80 	tst.w	r7, #65536	; 0x10000
 8001650:	d001      	beq.n	8001656 <HAL_GPIO_Init+0x32>
 8001652:	ea45 0602 	orr.w	r6, r5, r2
 8001656:	4a6a      	ldr	r2, [pc, #424]	; (8001800 <HAL_GPIO_Init+0x1dc>)
 8001658:	6016      	str	r6, [r2, #0]
 800165a:	6856      	ldr	r6, [r2, #4]
 800165c:	ea03 0206 	and.w	r2, r3, r6
 8001660:	684f      	ldr	r7, [r1, #4]
 8001662:	f417 3f00 	tst.w	r7, #131072	; 0x20000
 8001666:	d001      	beq.n	800166c <HAL_GPIO_Init+0x48>
 8001668:	ea45 0206 	orr.w	r2, r5, r6
 800166c:	4e64      	ldr	r6, [pc, #400]	; (8001800 <HAL_GPIO_Init+0x1dc>)
 800166e:	6072      	str	r2, [r6, #4]
 8001670:	f04f 42b0 	mov.w	r2, #1476395008	; 0x58000000
 8001674:	6812      	ldr	r2, [r2, #0]
 8001676:	ea03 0602 	and.w	r6, r3, r2
 800167a:	684f      	ldr	r7, [r1, #4]
 800167c:	f417 1f80 	tst.w	r7, #1048576	; 0x100000
 8001680:	d001      	beq.n	8001686 <HAL_GPIO_Init+0x62>
 8001682:	ea45 0602 	orr.w	r6, r5, r2
 8001686:	f04f 42b0 	mov.w	r2, #1476395008	; 0x58000000
 800168a:	6016      	str	r6, [r2, #0]
 800168c:	6852      	ldr	r2, [r2, #4]
 800168e:	4013      	ands	r3, r2
 8001690:	684e      	ldr	r6, [r1, #4]
 8001692:	f416 1f00 	tst.w	r6, #2097152	; 0x200000
 8001696:	d001      	beq.n	800169c <HAL_GPIO_Init+0x78>
 8001698:	ea45 0302 	orr.w	r3, r5, r2
 800169c:	f04f 42b0 	mov.w	r2, #1476395008	; 0x58000000
 80016a0:	6053      	str	r3, [r2, #4]
 80016a2:	3401      	adds	r4, #1
 80016a4:	2c0f      	cmp	r4, #15
 80016a6:	f200 80a6 	bhi.w	80017f6 <HAL_GPIO_Init+0x1d2>
 80016aa:	2301      	movs	r3, #1
 80016ac:	40a3      	lsls	r3, r4
 80016ae:	680a      	ldr	r2, [r1, #0]
 80016b0:	ea03 0502 	and.w	r5, r3, r2
 80016b4:	42ab      	cmp	r3, r5
 80016b6:	d1f4      	bne.n	80016a2 <HAL_GPIO_Init+0x7e>
 80016b8:	684a      	ldr	r2, [r1, #4]
 80016ba:	2a12      	cmp	r2, #18
 80016bc:	bf18      	it	ne
 80016be:	2a02      	cmpne	r2, #2
 80016c0:	d112      	bne.n	80016e8 <HAL_GPIO_Init+0xc4>
 80016c2:	ea4f 0ed4 	mov.w	lr, r4, lsr #3
 80016c6:	f10e 0e08 	add.w	lr, lr, #8
 80016ca:	f850 202e 	ldr.w	r2, [r0, lr, lsl #2]
 80016ce:	f004 0607 	and.w	r6, r4, #7
 80016d2:	00b6      	lsls	r6, r6, #2
 80016d4:	270f      	movs	r7, #15
 80016d6:	40b7      	lsls	r7, r6
 80016d8:	ea22 0207 	bic.w	r2, r2, r7
 80016dc:	690f      	ldr	r7, [r1, #16]
 80016de:	fa07 f606 	lsl.w	r6, r7, r6
 80016e2:	4332      	orrs	r2, r6
 80016e4:	f840 202e 	str.w	r2, [r0, lr, lsl #2]
 80016e8:	6806      	ldr	r6, [r0, #0]
 80016ea:	ea4f 0e44 	mov.w	lr, r4, lsl #1
 80016ee:	2203      	movs	r2, #3
 80016f0:	fa02 f20e 	lsl.w	r2, r2, lr
 80016f4:	43d2      	mvns	r2, r2
 80016f6:	4016      	ands	r6, r2
 80016f8:	684f      	ldr	r7, [r1, #4]
 80016fa:	f007 0703 	and.w	r7, r7, #3
 80016fe:	fa07 f70e 	lsl.w	r7, r7, lr
 8001702:	433e      	orrs	r6, r7
 8001704:	6006      	str	r6, [r0, #0]
 8001706:	684e      	ldr	r6, [r1, #4]
 8001708:	1e77      	subs	r7, r6, #1
 800170a:	2e11      	cmp	r6, #17
 800170c:	bf18      	it	ne
 800170e:	2f01      	cmpne	r7, #1
 8001710:	d901      	bls.n	8001716 <HAL_GPIO_Init+0xf2>
 8001712:	2e12      	cmp	r6, #18
 8001714:	d10f      	bne.n	8001736 <HAL_GPIO_Init+0x112>
 8001716:	6886      	ldr	r6, [r0, #8]
 8001718:	4016      	ands	r6, r2
 800171a:	68cf      	ldr	r7, [r1, #12]
 800171c:	fa07 f70e 	lsl.w	r7, r7, lr
 8001720:	433e      	orrs	r6, r7
 8001722:	6086      	str	r6, [r0, #8]
 8001724:	6846      	ldr	r6, [r0, #4]
 8001726:	ea26 0303 	bic.w	r3, r6, r3
 800172a:	684e      	ldr	r6, [r1, #4]
 800172c:	f3c6 1600 	ubfx	r6, r6, #4, #1
 8001730:	40a6      	lsls	r6, r4
 8001732:	4333      	orrs	r3, r6
 8001734:	6043      	str	r3, [r0, #4]
 8001736:	68c3      	ldr	r3, [r0, #12]
 8001738:	401a      	ands	r2, r3
 800173a:	688b      	ldr	r3, [r1, #8]
 800173c:	fa03 f30e 	lsl.w	r3, r3, lr
 8001740:	431a      	orrs	r2, r3
 8001742:	60c2      	str	r2, [r0, #12]
 8001744:	684b      	ldr	r3, [r1, #4]
 8001746:	f013 5f80 	tst.w	r3, #268435456	; 0x10000000
 800174a:	d0aa      	beq.n	80016a2 <HAL_GPIO_Init+0x7e>
 800174c:	4b2d      	ldr	r3, [pc, #180]	; (8001804 <HAL_GPIO_Init+0x1e0>)
 800174e:	f8d3 20f4 	ldr.w	r2, [r3, #244]	; 0xf4
 8001752:	f042 0202 	orr.w	r2, r2, #2
 8001756:	f8c3 20f4 	str.w	r2, [r3, #244]	; 0xf4
 800175a:	f8d3 30f4 	ldr.w	r3, [r3, #244]	; 0xf4
 800175e:	f003 0302 	and.w	r3, r3, #2
 8001762:	9301      	str	r3, [sp, #4]
 8001764:	9b01      	ldr	r3, [sp, #4]
 8001766:	08a3      	lsrs	r3, r4, #2
 8001768:	1c9e      	adds	r6, r3, #2
 800176a:	4a24      	ldr	r2, [pc, #144]	; (80017fc <HAL_GPIO_Init+0x1d8>)
 800176c:	f852 2026 	ldr.w	r2, [r2, r6, lsl #2]
 8001770:	f004 0603 	and.w	r6, r4, #3
 8001774:	ea4f 0e86 	mov.w	lr, r6, lsl #2
 8001778:	260f      	movs	r6, #15
 800177a:	fa06 f60e 	lsl.w	r6, r6, lr
 800177e:	ea22 0206 	bic.w	r2, r2, r6
 8001782:	4f21      	ldr	r7, [pc, #132]	; (8001808 <HAL_GPIO_Init+0x1e4>)
 8001784:	42b8      	cmp	r0, r7
 8001786:	f43f af53 	beq.w	8001630 <HAL_GPIO_Init+0xc>
 800178a:	4e20      	ldr	r6, [pc, #128]	; (800180c <HAL_GPIO_Init+0x1e8>)
 800178c:	42b0      	cmp	r0, r6
 800178e:	d022      	beq.n	80017d6 <HAL_GPIO_Init+0x1b2>
 8001790:	f506 6680 	add.w	r6, r6, #1024	; 0x400
 8001794:	42b0      	cmp	r0, r6
 8001796:	d020      	beq.n	80017da <HAL_GPIO_Init+0x1b6>
 8001798:	f506 6680 	add.w	r6, r6, #1024	; 0x400
 800179c:	42b0      	cmp	r0, r6
 800179e:	d01e      	beq.n	80017de <HAL_GPIO_Init+0x1ba>
 80017a0:	f506 6680 	add.w	r6, r6, #1024	; 0x400
 80017a4:	42b0      	cmp	r0, r6
 80017a6:	d01c      	beq.n	80017e2 <HAL_GPIO_Init+0x1be>
 80017a8:	f506 6680 	add.w	r6, r6, #1024	; 0x400
 80017ac:	42b0      	cmp	r0, r6
 80017ae:	d01a      	beq.n	80017e6 <HAL_GPIO_Init+0x1c2>
 80017b0:	f506 6680 	add.w	r6, r6, #1024	; 0x400
 80017b4:	42b0      	cmp	r0, r6
 80017b6:	d018      	beq.n	80017ea <HAL_GPIO_Init+0x1c6>
 80017b8:	f506 6680 	add.w	r6, r6, #1024	; 0x400
 80017bc:	42b0      	cmp	r0, r6
 80017be:	d016      	beq.n	80017ee <HAL_GPIO_Init+0x1ca>
 80017c0:	f506 6680 	add.w	r6, r6, #1024	; 0x400
 80017c4:	42b0      	cmp	r0, r6
 80017c6:	d014      	beq.n	80017f2 <HAL_GPIO_Init+0x1ce>
 80017c8:	f506 6680 	add.w	r6, r6, #1024	; 0x400
 80017cc:	42b0      	cmp	r0, r6
 80017ce:	f43f af2d 	beq.w	800162c <HAL_GPIO_Init+0x8>
 80017d2:	260a      	movs	r6, #10
 80017d4:	e72d      	b.n	8001632 <HAL_GPIO_Init+0xe>
 80017d6:	2601      	movs	r6, #1
 80017d8:	e72b      	b.n	8001632 <HAL_GPIO_Init+0xe>
 80017da:	2602      	movs	r6, #2
 80017dc:	e729      	b.n	8001632 <HAL_GPIO_Init+0xe>
 80017de:	2603      	movs	r6, #3
 80017e0:	e727      	b.n	8001632 <HAL_GPIO_Init+0xe>
 80017e2:	2604      	movs	r6, #4
 80017e4:	e725      	b.n	8001632 <HAL_GPIO_Init+0xe>
 80017e6:	2605      	movs	r6, #5
 80017e8:	e723      	b.n	8001632 <HAL_GPIO_Init+0xe>
 80017ea:	2606      	movs	r6, #6
 80017ec:	e721      	b.n	8001632 <HAL_GPIO_Init+0xe>
 80017ee:	2607      	movs	r6, #7
 80017f0:	e71f      	b.n	8001632 <HAL_GPIO_Init+0xe>
 80017f2:	2608      	movs	r6, #8
 80017f4:	e71d      	b.n	8001632 <HAL_GPIO_Init+0xe>
 80017f6:	b003      	add	sp, #12
 80017f8:	bdf0      	pop	{r4, r5, r6, r7, pc}
 80017fa:	bf00      	nop
 80017fc:	58000400 	.word	0x58000400
 8001800:	58000080 	.word	0x58000080
 8001804:	58024400 	.word	0x58024400
 8001808:	58020000 	.word	0x58020000
 800180c:	58020400 	.word	0x58020400

08001810 <HAL_GPIO_WritePin>:
 8001810:	b90a      	cbnz	r2, 8001816 <HAL_GPIO_WritePin+0x6>
 8001812:	8341      	strh	r1, [r0, #26]
 8001814:	4770      	bx	lr
 8001816:	8301      	strh	r1, [r0, #24]
 8001818:	4770      	bx	lr

0800181a <HAL_PCD_Init>:
 800181a:	2800      	cmp	r0, #0
 800181c:	d079      	beq.n	8001912 <HAL_PCD_Init+0xf8>
 800181e:	b5f0      	push	{r4, r5, r6, r7, lr}
 8001820:	b08b      	sub	sp, #44	; 0x2c
 8001822:	4604      	mov	r4, r0
 8001824:	2303      	movs	r3, #3
 8001826:	f880 33b9 	strb.w	r3, [r0, #953]	; 0x3b9
 800182a:	f003 fe9f 	bl	800556c <HAL_PCD_MspInit>
 800182e:	6820      	ldr	r0, [r4, #0]
 8001830:	f002 ff98 	bl	8004764 <USB_DisableGlobalInt>
 8001834:	4625      	mov	r5, r4
 8001836:	f855 7b10 	ldr.w	r7, [r5], #16
 800183a:	466e      	mov	r6, sp
 800183c:	cd0f      	ldmia	r5!, {r0, r1, r2, r3}
 800183e:	c60f      	stmia	r6!, {r0, r1, r2, r3}
 8001840:	cd0f      	ldmia	r5!, {r0, r1, r2, r3}
 8001842:	c60f      	stmia	r6!, {r0, r1, r2, r3}
 8001844:	e895 0003 	ldmia.w	r5, {r0, r1}
 8001848:	e886 0003 	stmia.w	r6, {r0, r1}
 800184c:	1d23      	adds	r3, r4, #4
 800184e:	cb0e      	ldmia	r3, {r1, r2, r3}
 8001850:	4638      	mov	r0, r7
 8001852:	f002 ff49 	bl	80046e8 <USB_CoreInit>
 8001856:	2100      	movs	r1, #0
 8001858:	6820      	ldr	r0, [r4, #0]
 800185a:	f002 ff89 	bl	8004770 <USB_SetCurrentMode>
 800185e:	2200      	movs	r2, #0
 8001860:	e010      	b.n	8001884 <HAL_PCD_Init+0x6a>
 8001862:	00d1      	lsls	r1, r2, #3
 8001864:	1a89      	subs	r1, r1, r2
 8001866:	008b      	lsls	r3, r1, #2
 8001868:	4423      	add	r3, r4
 800186a:	2101      	movs	r1, #1
 800186c:	f883 1039 	strb.w	r1, [r3, #57]	; 0x39
 8001870:	f883 2038 	strb.w	r2, [r3, #56]	; 0x38
 8001874:	87da      	strh	r2, [r3, #62]	; 0x3e
 8001876:	2100      	movs	r1, #0
 8001878:	f883 103b 	strb.w	r1, [r3, #59]	; 0x3b
 800187c:	6419      	str	r1, [r3, #64]	; 0x40
 800187e:	6459      	str	r1, [r3, #68]	; 0x44
 8001880:	64d9      	str	r1, [r3, #76]	; 0x4c
 8001882:	3201      	adds	r2, #1
 8001884:	2a0e      	cmp	r2, #14
 8001886:	d9ec      	bls.n	8001862 <HAL_PCD_Init+0x48>
 8001888:	2200      	movs	r2, #0
 800188a:	e018      	b.n	80018be <HAL_PCD_Init+0xa4>
 800188c:	00d1      	lsls	r1, r2, #3
 800188e:	1a89      	subs	r1, r1, r2
 8001890:	008b      	lsls	r3, r1, #2
 8001892:	4423      	add	r3, r4
 8001894:	2100      	movs	r1, #0
 8001896:	f883 11f9 	strb.w	r1, [r3, #505]	; 0x1f9
 800189a:	f883 21f8 	strb.w	r2, [r3, #504]	; 0x1f8
 800189e:	87da      	strh	r2, [r3, #62]	; 0x3e
 80018a0:	f883 11fb 	strb.w	r1, [r3, #507]	; 0x1fb
 80018a4:	f8c3 1200 	str.w	r1, [r3, #512]	; 0x200
 80018a8:	f8c3 1204 	str.w	r1, [r3, #516]	; 0x204
 80018ac:	f8c3 120c 	str.w	r1, [r3, #524]	; 0x20c
 80018b0:	6823      	ldr	r3, [r4, #0]
 80018b2:	f102 0040 	add.w	r0, r2, #64	; 0x40
 80018b6:	eb03 0380 	add.w	r3, r3, r0, lsl #2
 80018ba:	6059      	str	r1, [r3, #4]
 80018bc:	3201      	adds	r2, #1
 80018be:	2a0e      	cmp	r2, #14
 80018c0:	d9e4      	bls.n	800188c <HAL_PCD_Init+0x72>
 80018c2:	4625      	mov	r5, r4
 80018c4:	f855 7b10 	ldr.w	r7, [r5], #16
 80018c8:	466e      	mov	r6, sp
 80018ca:	cd0f      	ldmia	r5!, {r0, r1, r2, r3}
 80018cc:	c60f      	stmia	r6!, {r0, r1, r2, r3}
 80018ce:	cd0f      	ldmia	r5!, {r0, r1, r2, r3}
 80018d0:	c60f      	stmia	r6!, {r0, r1, r2, r3}
 80018d2:	e895 0003 	ldmia.w	r5, {r0, r1}
 80018d6:	e886 0003 	stmia.w	r6, {r0, r1}
 80018da:	1d23      	adds	r3, r4, #4
 80018dc:	cb0e      	ldmia	r3, {r1, r2, r3}
 80018de:	4638      	mov	r0, r7
 80018e0:	f002 ff5c 	bl	800479c <USB_DevInit>
 80018e4:	2301      	movs	r3, #1
 80018e6:	f884 33b9 	strb.w	r3, [r4, #953]	; 0x3b9
 80018ea:	6aa3      	ldr	r3, [r4, #40]	; 0x28
 80018ec:	2b01      	cmp	r3, #1
 80018ee:	d008      	beq.n	8001902 <HAL_PCD_Init+0xe8>
 80018f0:	6a63      	ldr	r3, [r4, #36]	; 0x24
 80018f2:	2b01      	cmp	r3, #1
 80018f4:	d009      	beq.n	800190a <HAL_PCD_Init+0xf0>
 80018f6:	6820      	ldr	r0, [r4, #0]
 80018f8:	f003 f82b 	bl	8004952 <USB_DevDisconnect>
 80018fc:	2000      	movs	r0, #0
 80018fe:	b00b      	add	sp, #44	; 0x2c
 8001900:	bdf0      	pop	{r4, r5, r6, r7, pc}
 8001902:	4620      	mov	r0, r4
 8001904:	f000 f808 	bl	8001918 <HAL_PCDEx_ActivateLPM>
 8001908:	e7f2      	b.n	80018f0 <HAL_PCD_Init+0xd6>
 800190a:	4620      	mov	r0, r4
 800190c:	f000 f818 	bl	8001940 <HAL_PCDEx_ActivateBCD>
 8001910:	e7f1      	b.n	80018f6 <HAL_PCD_Init+0xdc>
 8001912:	2001      	movs	r0, #1
 8001914:	4770      	bx	lr
	...

08001918 <HAL_PCDEx_ActivateLPM>:
 8001918:	4602      	mov	r2, r0
 800191a:	6803      	ldr	r3, [r0, #0]
 800191c:	2101      	movs	r1, #1
 800191e:	f8c0 13f4 	str.w	r1, [r0, #1012]	; 0x3f4
 8001922:	2000      	movs	r0, #0
 8001924:	f882 03ec 	strb.w	r0, [r2, #1004]	; 0x3ec
 8001928:	699a      	ldr	r2, [r3, #24]
 800192a:	f042 6200 	orr.w	r2, r2, #134217728	; 0x8000000
 800192e:	619a      	str	r2, [r3, #24]
 8001930:	6d59      	ldr	r1, [r3, #84]	; 0x54
 8001932:	4a02      	ldr	r2, [pc, #8]	; (800193c <HAL_PCDEx_ActivateLPM+0x24>)
 8001934:	430a      	orrs	r2, r1
 8001936:	655a      	str	r2, [r3, #84]	; 0x54
 8001938:	4770      	bx	lr
 800193a:	bf00      	nop
 800193c:	10000003 	.word	0x10000003

08001940 <HAL_PCDEx_ActivateBCD>:
 8001940:	6803      	ldr	r3, [r0, #0]
 8001942:	2201      	movs	r2, #1
 8001944:	f8c0 23f8 	str.w	r2, [r0, #1016]	; 0x3f8
 8001948:	6b9a      	ldr	r2, [r3, #56]	; 0x38
 800194a:	f442 3200 	orr.w	r2, r2, #131072	; 0x20000
 800194e:	639a      	str	r2, [r3, #56]	; 0x38
 8001950:	6b9a      	ldr	r2, [r3, #56]	; 0x38
 8001952:	f442 2280 	orr.w	r2, r2, #262144	; 0x40000
 8001956:	639a      	str	r2, [r3, #56]	; 0x38
 8001958:	2000      	movs	r0, #0
 800195a:	4770      	bx	lr

0800195c <HAL_RCC_OscConfig>:
 800195c:	b538      	push	{r3, r4, r5, lr}
 800195e:	4604      	mov	r4, r0
 8001960:	6803      	ldr	r3, [r0, #0]
 8001962:	f013 0f01 	tst.w	r3, #1
 8001966:	d03b      	beq.n	80019e0 <HAL_RCC_OscConfig+0x84>
 8001968:	4bad      	ldr	r3, [pc, #692]	; (8001c20 <HAL_RCC_OscConfig+0x2c4>)
 800196a:	691b      	ldr	r3, [r3, #16]
 800196c:	f003 0338 	and.w	r3, r3, #56	; 0x38
 8001970:	2b10      	cmp	r3, #16
 8001972:	d02c      	beq.n	80019ce <HAL_RCC_OscConfig+0x72>
 8001974:	4baa      	ldr	r3, [pc, #680]	; (8001c20 <HAL_RCC_OscConfig+0x2c4>)
 8001976:	691b      	ldr	r3, [r3, #16]
 8001978:	f003 0338 	and.w	r3, r3, #56	; 0x38
 800197c:	2b18      	cmp	r3, #24
 800197e:	d020      	beq.n	80019c2 <HAL_RCC_OscConfig+0x66>
 8001980:	6863      	ldr	r3, [r4, #4]
 8001982:	f5b3 3f80 	cmp.w	r3, #65536	; 0x10000
 8001986:	d055      	beq.n	8001a34 <HAL_RCC_OscConfig+0xd8>
 8001988:	2b00      	cmp	r3, #0
 800198a:	d159      	bne.n	8001a40 <HAL_RCC_OscConfig+0xe4>
 800198c:	4ba4      	ldr	r3, [pc, #656]	; (8001c20 <HAL_RCC_OscConfig+0x2c4>)
 800198e:	681a      	ldr	r2, [r3, #0]
 8001990:	f422 3280 	bic.w	r2, r2, #65536	; 0x10000
 8001994:	601a      	str	r2, [r3, #0]
 8001996:	681a      	ldr	r2, [r3, #0]
 8001998:	f422 2280 	bic.w	r2, r2, #262144	; 0x40000
 800199c:	601a      	str	r2, [r3, #0]
 800199e:	6863      	ldr	r3, [r4, #4]
 80019a0:	2b00      	cmp	r3, #0
 80019a2:	d064      	beq.n	8001a6e <HAL_RCC_OscConfig+0x112>
 80019a4:	f7fe fe5a 	bl	800065c <HAL_GetTick>
 80019a8:	4605      	mov	r5, r0
 80019aa:	4b9d      	ldr	r3, [pc, #628]	; (8001c20 <HAL_RCC_OscConfig+0x2c4>)
 80019ac:	681b      	ldr	r3, [r3, #0]
 80019ae:	f413 3f00 	tst.w	r3, #131072	; 0x20000
 80019b2:	d115      	bne.n	80019e0 <HAL_RCC_OscConfig+0x84>
 80019b4:	f7fe fe52 	bl	800065c <HAL_GetTick>
 80019b8:	1b40      	subs	r0, r0, r5
 80019ba:	2864      	cmp	r0, #100	; 0x64
 80019bc:	d9f5      	bls.n	80019aa <HAL_RCC_OscConfig+0x4e>
 80019be:	2003      	movs	r0, #3
 80019c0:	bd38      	pop	{r3, r4, r5, pc}
 80019c2:	4b97      	ldr	r3, [pc, #604]	; (8001c20 <HAL_RCC_OscConfig+0x2c4>)
 80019c4:	6a9b      	ldr	r3, [r3, #40]	; 0x28
 80019c6:	f003 0303 	and.w	r3, r3, #3
 80019ca:	2b02      	cmp	r3, #2
 80019cc:	d1d8      	bne.n	8001980 <HAL_RCC_OscConfig+0x24>
 80019ce:	4b94      	ldr	r3, [pc, #592]	; (8001c20 <HAL_RCC_OscConfig+0x2c4>)
 80019d0:	681b      	ldr	r3, [r3, #0]
 80019d2:	f413 3f00 	tst.w	r3, #131072	; 0x20000
 80019d6:	d003      	beq.n	80019e0 <HAL_RCC_OscConfig+0x84>
 80019d8:	6863      	ldr	r3, [r4, #4]
 80019da:	2b00      	cmp	r3, #0
 80019dc:	f000 8274 	beq.w	8001ec8 <HAL_RCC_OscConfig+0x56c>
 80019e0:	6823      	ldr	r3, [r4, #0]
 80019e2:	f013 0f02 	tst.w	r3, #2
 80019e6:	f000 8084 	beq.w	8001af2 <HAL_RCC_OscConfig+0x196>
 80019ea:	4b8d      	ldr	r3, [pc, #564]	; (8001c20 <HAL_RCC_OscConfig+0x2c4>)
 80019ec:	691b      	ldr	r3, [r3, #16]
 80019ee:	f013 0f38 	tst.w	r3, #56	; 0x38
 80019f2:	d050      	beq.n	8001a96 <HAL_RCC_OscConfig+0x13a>
 80019f4:	4b8a      	ldr	r3, [pc, #552]	; (8001c20 <HAL_RCC_OscConfig+0x2c4>)
 80019f6:	691b      	ldr	r3, [r3, #16]
 80019f8:	f003 0338 	and.w	r3, r3, #56	; 0x38
 80019fc:	2b18      	cmp	r3, #24
 80019fe:	d045      	beq.n	8001a8c <HAL_RCC_OscConfig+0x130>
 8001a00:	68e3      	ldr	r3, [r4, #12]
 8001a02:	2b00      	cmp	r3, #0
 8001a04:	f000 80ad 	beq.w	8001b62 <HAL_RCC_OscConfig+0x206>
 8001a08:	4985      	ldr	r1, [pc, #532]	; (8001c20 <HAL_RCC_OscConfig+0x2c4>)
 8001a0a:	680a      	ldr	r2, [r1, #0]
 8001a0c:	f022 0219 	bic.w	r2, r2, #25
 8001a10:	4313      	orrs	r3, r2
 8001a12:	600b      	str	r3, [r1, #0]
 8001a14:	f7fe fe22 	bl	800065c <HAL_GetTick>
 8001a18:	4605      	mov	r5, r0
 8001a1a:	4b81      	ldr	r3, [pc, #516]	; (8001c20 <HAL_RCC_OscConfig+0x2c4>)
 8001a1c:	681b      	ldr	r3, [r3, #0]
 8001a1e:	f013 0f04 	tst.w	r3, #4
 8001a22:	f040 808e 	bne.w	8001b42 <HAL_RCC_OscConfig+0x1e6>
 8001a26:	f7fe fe19 	bl	800065c <HAL_GetTick>
 8001a2a:	1b40      	subs	r0, r0, r5
 8001a2c:	2802      	cmp	r0, #2
 8001a2e:	d9f4      	bls.n	8001a1a <HAL_RCC_OscConfig+0xbe>
 8001a30:	2003      	movs	r0, #3
 8001a32:	bd38      	pop	{r3, r4, r5, pc}
 8001a34:	4a7a      	ldr	r2, [pc, #488]	; (8001c20 <HAL_RCC_OscConfig+0x2c4>)
 8001a36:	6813      	ldr	r3, [r2, #0]
 8001a38:	f443 3380 	orr.w	r3, r3, #65536	; 0x10000
 8001a3c:	6013      	str	r3, [r2, #0]
 8001a3e:	e7ae      	b.n	800199e <HAL_RCC_OscConfig+0x42>
 8001a40:	f5b3 2fa0 	cmp.w	r3, #327680	; 0x50000
 8001a44:	d009      	beq.n	8001a5a <HAL_RCC_OscConfig+0xfe>
 8001a46:	4b76      	ldr	r3, [pc, #472]	; (8001c20 <HAL_RCC_OscConfig+0x2c4>)
 8001a48:	681a      	ldr	r2, [r3, #0]
 8001a4a:	f422 3280 	bic.w	r2, r2, #65536	; 0x10000
 8001a4e:	601a      	str	r2, [r3, #0]
 8001a50:	681a      	ldr	r2, [r3, #0]
 8001a52:	f422 2280 	bic.w	r2, r2, #262144	; 0x40000
 8001a56:	601a      	str	r2, [r3, #0]
 8001a58:	e7a1      	b.n	800199e <HAL_RCC_OscConfig+0x42>
 8001a5a:	4b71      	ldr	r3, [pc, #452]	; (8001c20 <HAL_RCC_OscConfig+0x2c4>)
 8001a5c:	681a      	ldr	r2, [r3, #0]
 8001a5e:	f442 2280 	orr.w	r2, r2, #262144	; 0x40000
 8001a62:	601a      	str	r2, [r3, #0]
 8001a64:	681a      	ldr	r2, [r3, #0]
 8001a66:	f442 3280 	orr.w	r2, r2, #65536	; 0x10000
 8001a6a:	601a      	str	r2, [r3, #0]
 8001a6c:	e797      	b.n	800199e <HAL_RCC_OscConfig+0x42>
 8001a6e:	f7fe fdf5 	bl	800065c <HAL_GetTick>
 8001a72:	4605      	mov	r5, r0
 8001a74:	4b6a      	ldr	r3, [pc, #424]	; (8001c20 <HAL_RCC_OscConfig+0x2c4>)
 8001a76:	681b      	ldr	r3, [r3, #0]
 8001a78:	f413 3f00 	tst.w	r3, #131072	; 0x20000
 8001a7c:	d0b0      	beq.n	80019e0 <HAL_RCC_OscConfig+0x84>
 8001a7e:	f7fe fded 	bl	800065c <HAL_GetTick>
 8001a82:	1b40      	subs	r0, r0, r5
 8001a84:	2864      	cmp	r0, #100	; 0x64
 8001a86:	d9f5      	bls.n	8001a74 <HAL_RCC_OscConfig+0x118>
 8001a88:	2003      	movs	r0, #3
 8001a8a:	bd38      	pop	{r3, r4, r5, pc}
 8001a8c:	4b64      	ldr	r3, [pc, #400]	; (8001c20 <HAL_RCC_OscConfig+0x2c4>)
 8001a8e:	6a9b      	ldr	r3, [r3, #40]	; 0x28
 8001a90:	f013 0f03 	tst.w	r3, #3
 8001a94:	d1b4      	bne.n	8001a00 <HAL_RCC_OscConfig+0xa4>
 8001a96:	4b62      	ldr	r3, [pc, #392]	; (8001c20 <HAL_RCC_OscConfig+0x2c4>)
 8001a98:	681b      	ldr	r3, [r3, #0]
 8001a9a:	f013 0f04 	tst.w	r3, #4
 8001a9e:	d003      	beq.n	8001aa8 <HAL_RCC_OscConfig+0x14c>
 8001aa0:	68e3      	ldr	r3, [r4, #12]
 8001aa2:	2b00      	cmp	r3, #0
 8001aa4:	f000 8212 	beq.w	8001ecc <HAL_RCC_OscConfig+0x570>
 8001aa8:	4a5d      	ldr	r2, [pc, #372]	; (8001c20 <HAL_RCC_OscConfig+0x2c4>)
 8001aaa:	6813      	ldr	r3, [r2, #0]
 8001aac:	f023 0319 	bic.w	r3, r3, #25
 8001ab0:	68e1      	ldr	r1, [r4, #12]
 8001ab2:	430b      	orrs	r3, r1
 8001ab4:	6013      	str	r3, [r2, #0]
 8001ab6:	f7fe fdd1 	bl	800065c <HAL_GetTick>
 8001aba:	4605      	mov	r5, r0
 8001abc:	4b58      	ldr	r3, [pc, #352]	; (8001c20 <HAL_RCC_OscConfig+0x2c4>)
 8001abe:	681b      	ldr	r3, [r3, #0]
 8001ac0:	f013 0f04 	tst.w	r3, #4
 8001ac4:	d106      	bne.n	8001ad4 <HAL_RCC_OscConfig+0x178>
 8001ac6:	f7fe fdc9 	bl	800065c <HAL_GetTick>
 8001aca:	1b40      	subs	r0, r0, r5
 8001acc:	2802      	cmp	r0, #2
 8001ace:	d9f5      	bls.n	8001abc <HAL_RCC_OscConfig+0x160>
 8001ad0:	2003      	movs	r0, #3
 8001ad2:	bd38      	pop	{r3, r4, r5, pc}
 8001ad4:	4852      	ldr	r0, [pc, #328]	; (8001c20 <HAL_RCC_OscConfig+0x2c4>)
 8001ad6:	6843      	ldr	r3, [r0, #4]
 8001ad8:	f423 337c 	bic.w	r3, r3, #258048	; 0x3f000
 8001adc:	6921      	ldr	r1, [r4, #16]
 8001ade:	f44f 327c 	mov.w	r2, #258048	; 0x3f000
 8001ae2:	fa92 f2a2 	rbit	r2, r2
 8001ae6:	fab2 f282 	clz	r2, r2
 8001aea:	fa01 f202 	lsl.w	r2, r1, r2
 8001aee:	4313      	orrs	r3, r2
 8001af0:	6043      	str	r3, [r0, #4]
 8001af2:	6823      	ldr	r3, [r4, #0]
 8001af4:	f013 0f10 	tst.w	r3, #16
 8001af8:	d066      	beq.n	8001bc8 <HAL_RCC_OscConfig+0x26c>
 8001afa:	4b49      	ldr	r3, [pc, #292]	; (8001c20 <HAL_RCC_OscConfig+0x2c4>)
 8001afc:	691b      	ldr	r3, [r3, #16]
 8001afe:	f003 0338 	and.w	r3, r3, #56	; 0x38
 8001b02:	2b08      	cmp	r3, #8
 8001b04:	d047      	beq.n	8001b96 <HAL_RCC_OscConfig+0x23a>
 8001b06:	4b46      	ldr	r3, [pc, #280]	; (8001c20 <HAL_RCC_OscConfig+0x2c4>)
 8001b08:	691b      	ldr	r3, [r3, #16]
 8001b0a:	f003 0338 	and.w	r3, r3, #56	; 0x38
 8001b0e:	2b18      	cmp	r3, #24
 8001b10:	d03b      	beq.n	8001b8a <HAL_RCC_OscConfig+0x22e>
 8001b12:	69e3      	ldr	r3, [r4, #28]
 8001b14:	2b00      	cmp	r3, #0
 8001b16:	f000 8085 	beq.w	8001c24 <HAL_RCC_OscConfig+0x2c8>
 8001b1a:	4a41      	ldr	r2, [pc, #260]	; (8001c20 <HAL_RCC_OscConfig+0x2c4>)
 8001b1c:	6813      	ldr	r3, [r2, #0]
 8001b1e:	f043 0380 	orr.w	r3, r3, #128	; 0x80
 8001b22:	6013      	str	r3, [r2, #0]
 8001b24:	f7fe fd9a 	bl	800065c <HAL_GetTick>
 8001b28:	4605      	mov	r5, r0
 8001b2a:	4b3d      	ldr	r3, [pc, #244]	; (8001c20 <HAL_RCC_OscConfig+0x2c4>)
 8001b2c:	681b      	ldr	r3, [r3, #0]
 8001b2e:	f413 7f80 	tst.w	r3, #256	; 0x100
 8001b32:	d164      	bne.n	8001bfe <HAL_RCC_OscConfig+0x2a2>
 8001b34:	f7fe fd92 	bl	800065c <HAL_GetTick>
 8001b38:	1b40      	subs	r0, r0, r5
 8001b3a:	2802      	cmp	r0, #2
 8001b3c:	d9f5      	bls.n	8001b2a <HAL_RCC_OscConfig+0x1ce>
 8001b3e:	2003      	movs	r0, #3
 8001b40:	bd38      	pop	{r3, r4, r5, pc}
 8001b42:	4837      	ldr	r0, [pc, #220]	; (8001c20 <HAL_RCC_OscConfig+0x2c4>)
 8001b44:	6843      	ldr	r3, [r0, #4]
 8001b46:	f423 337c 	bic.w	r3, r3, #258048	; 0x3f000
 8001b4a:	6921      	ldr	r1, [r4, #16]
 8001b4c:	f44f 327c 	mov.w	r2, #258048	; 0x3f000
 8001b50:	fa92 f2a2 	rbit	r2, r2
 8001b54:	fab2 f282 	clz	r2, r2
 8001b58:	fa01 f202 	lsl.w	r2, r1, r2
 8001b5c:	4313      	orrs	r3, r2
 8001b5e:	6043      	str	r3, [r0, #4]
 8001b60:	e7c7      	b.n	8001af2 <HAL_RCC_OscConfig+0x196>
 8001b62:	4a2f      	ldr	r2, [pc, #188]	; (8001c20 <HAL_RCC_OscConfig+0x2c4>)
 8001b64:	6813      	ldr	r3, [r2, #0]
 8001b66:	f023 0301 	bic.w	r3, r3, #1
 8001b6a:	6013      	str	r3, [r2, #0]
 8001b6c:	f7fe fd76 	bl	800065c <HAL_GetTick>
 8001b70:	4605      	mov	r5, r0
 8001b72:	4b2b      	ldr	r3, [pc, #172]	; (8001c20 <HAL_RCC_OscConfig+0x2c4>)
 8001b74:	681b      	ldr	r3, [r3, #0]
 8001b76:	f013 0f04 	tst.w	r3, #4
 8001b7a:	d0ba      	beq.n	8001af2 <HAL_RCC_OscConfig+0x196>
 8001b7c:	f7fe fd6e 	bl	800065c <HAL_GetTick>
 8001b80:	1b40      	subs	r0, r0, r5
 8001b82:	2802      	cmp	r0, #2
 8001b84:	d9f5      	bls.n	8001b72 <HAL_RCC_OscConfig+0x216>
 8001b86:	2003      	movs	r0, #3
 8001b88:	bd38      	pop	{r3, r4, r5, pc}
 8001b8a:	4b25      	ldr	r3, [pc, #148]	; (8001c20 <HAL_RCC_OscConfig+0x2c4>)
 8001b8c:	6a9b      	ldr	r3, [r3, #40]	; 0x28
 8001b8e:	f003 0303 	and.w	r3, r3, #3
 8001b92:	2b01      	cmp	r3, #1
 8001b94:	d1bd      	bne.n	8001b12 <HAL_RCC_OscConfig+0x1b6>
 8001b96:	4b22      	ldr	r3, [pc, #136]	; (8001c20 <HAL_RCC_OscConfig+0x2c4>)
 8001b98:	681b      	ldr	r3, [r3, #0]
 8001b9a:	f413 7f80 	tst.w	r3, #256	; 0x100
 8001b9e:	d004      	beq.n	8001baa <HAL_RCC_OscConfig+0x24e>
 8001ba0:	69e3      	ldr	r3, [r4, #28]
 8001ba2:	2b80      	cmp	r3, #128	; 0x80
 8001ba4:	d001      	beq.n	8001baa <HAL_RCC_OscConfig+0x24e>
 8001ba6:	2001      	movs	r0, #1
 8001ba8:	bd38      	pop	{r3, r4, r5, pc}
 8001baa:	481d      	ldr	r0, [pc, #116]	; (8001c20 <HAL_RCC_OscConfig+0x2c4>)
 8001bac:	6843      	ldr	r3, [r0, #4]
 8001bae:	f023 43f8 	bic.w	r3, r3, #2080374784	; 0x7c000000
 8001bb2:	6a21      	ldr	r1, [r4, #32]
 8001bb4:	f04f 42f8 	mov.w	r2, #2080374784	; 0x7c000000
 8001bb8:	fa92 f2a2 	rbit	r2, r2
 8001bbc:	fab2 f282 	clz	r2, r2
 8001bc0:	fa01 f202 	lsl.w	r2, r1, r2
 8001bc4:	4313      	orrs	r3, r2
 8001bc6:	6043      	str	r3, [r0, #4]
 8001bc8:	6823      	ldr	r3, [r4, #0]
 8001bca:	f013 0f08 	tst.w	r3, #8
 8001bce:	d051      	beq.n	8001c74 <HAL_RCC_OscConfig+0x318>
 8001bd0:	6963      	ldr	r3, [r4, #20]
 8001bd2:	2b00      	cmp	r3, #0
 8001bd4:	d03a      	beq.n	8001c4c <HAL_RCC_OscConfig+0x2f0>
 8001bd6:	4a12      	ldr	r2, [pc, #72]	; (8001c20 <HAL_RCC_OscConfig+0x2c4>)
 8001bd8:	6f53      	ldr	r3, [r2, #116]	; 0x74
 8001bda:	f043 0301 	orr.w	r3, r3, #1
 8001bde:	6753      	str	r3, [r2, #116]	; 0x74
 8001be0:	f7fe fd3c 	bl	800065c <HAL_GetTick>
 8001be4:	4605      	mov	r5, r0
 8001be6:	4b0e      	ldr	r3, [pc, #56]	; (8001c20 <HAL_RCC_OscConfig+0x2c4>)
 8001be8:	6f5b      	ldr	r3, [r3, #116]	; 0x74
 8001bea:	f013 0f02 	tst.w	r3, #2
 8001bee:	d141      	bne.n	8001c74 <HAL_RCC_OscConfig+0x318>
 8001bf0:	f7fe fd34 	bl	800065c <HAL_GetTick>
 8001bf4:	1b40      	subs	r0, r0, r5
 8001bf6:	2802      	cmp	r0, #2
 8001bf8:	d9f5      	bls.n	8001be6 <HAL_RCC_OscConfig+0x28a>
 8001bfa:	2003      	movs	r0, #3
 8001bfc:	bd38      	pop	{r3, r4, r5, pc}
 8001bfe:	4808      	ldr	r0, [pc, #32]	; (8001c20 <HAL_RCC_OscConfig+0x2c4>)
 8001c00:	6843      	ldr	r3, [r0, #4]
 8001c02:	f023 43f8 	bic.w	r3, r3, #2080374784	; 0x7c000000
 8001c06:	6a21      	ldr	r1, [r4, #32]
 8001c08:	f04f 42f8 	mov.w	r2, #2080374784	; 0x7c000000
 8001c0c:	fa92 f2a2 	rbit	r2, r2
 8001c10:	fab2 f282 	clz	r2, r2
 8001c14:	fa01 f202 	lsl.w	r2, r1, r2
 8001c18:	4313      	orrs	r3, r2
 8001c1a:	6043      	str	r3, [r0, #4]
 8001c1c:	e7d4      	b.n	8001bc8 <HAL_RCC_OscConfig+0x26c>
 8001c1e:	bf00      	nop
 8001c20:	58024400 	.word	0x58024400
 8001c24:	4aac      	ldr	r2, [pc, #688]	; (8001ed8 <HAL_RCC_OscConfig+0x57c>)
 8001c26:	6813      	ldr	r3, [r2, #0]
 8001c28:	f023 0380 	bic.w	r3, r3, #128	; 0x80
 8001c2c:	6013      	str	r3, [r2, #0]
 8001c2e:	f7fe fd15 	bl	800065c <HAL_GetTick>
 8001c32:	4605      	mov	r5, r0
 8001c34:	4ba8      	ldr	r3, [pc, #672]	; (8001ed8 <HAL_RCC_OscConfig+0x57c>)
 8001c36:	681b      	ldr	r3, [r3, #0]
 8001c38:	f413 7f80 	tst.w	r3, #256	; 0x100
 8001c3c:	d0c4      	beq.n	8001bc8 <HAL_RCC_OscConfig+0x26c>
 8001c3e:	f7fe fd0d 	bl	800065c <HAL_GetTick>
 8001c42:	1b40      	subs	r0, r0, r5
 8001c44:	2802      	cmp	r0, #2
 8001c46:	d9f5      	bls.n	8001c34 <HAL_RCC_OscConfig+0x2d8>
 8001c48:	2003      	movs	r0, #3
 8001c4a:	bd38      	pop	{r3, r4, r5, pc}
 8001c4c:	4aa2      	ldr	r2, [pc, #648]	; (8001ed8 <HAL_RCC_OscConfig+0x57c>)
 8001c4e:	6f53      	ldr	r3, [r2, #116]	; 0x74
 8001c50:	f023 0301 	bic.w	r3, r3, #1
 8001c54:	6753      	str	r3, [r2, #116]	; 0x74
 8001c56:	f7fe fd01 	bl	800065c <HAL_GetTick>
 8001c5a:	4605      	mov	r5, r0
 8001c5c:	4b9e      	ldr	r3, [pc, #632]	; (8001ed8 <HAL_RCC_OscConfig+0x57c>)
 8001c5e:	6f5b      	ldr	r3, [r3, #116]	; 0x74
 8001c60:	f013 0f02 	tst.w	r3, #2
 8001c64:	d006      	beq.n	8001c74 <HAL_RCC_OscConfig+0x318>
 8001c66:	f7fe fcf9 	bl	800065c <HAL_GetTick>
 8001c6a:	1b40      	subs	r0, r0, r5
 8001c6c:	2802      	cmp	r0, #2
 8001c6e:	d9f5      	bls.n	8001c5c <HAL_RCC_OscConfig+0x300>
 8001c70:	2003      	movs	r0, #3
 8001c72:	bd38      	pop	{r3, r4, r5, pc}
 8001c74:	6823      	ldr	r3, [r4, #0]
 8001c76:	f013 0f20 	tst.w	r3, #32
 8001c7a:	d029      	beq.n	8001cd0 <HAL_RCC_OscConfig+0x374>
 8001c7c:	69a3      	ldr	r3, [r4, #24]
 8001c7e:	b19b      	cbz	r3, 8001ca8 <HAL_RCC_OscConfig+0x34c>
 8001c80:	4a95      	ldr	r2, [pc, #596]	; (8001ed8 <HAL_RCC_OscConfig+0x57c>)
 8001c82:	6813      	ldr	r3, [r2, #0]
 8001c84:	f443 5380 	orr.w	r3, r3, #4096	; 0x1000
 8001c88:	6013      	str	r3, [r2, #0]
 8001c8a:	f7fe fce7 	bl	800065c <HAL_GetTick>
 8001c8e:	4605      	mov	r5, r0
 8001c90:	4b91      	ldr	r3, [pc, #580]	; (8001ed8 <HAL_RCC_OscConfig+0x57c>)
 8001c92:	681b      	ldr	r3, [r3, #0]
 8001c94:	f413 5f00 	tst.w	r3, #8192	; 0x2000
 8001c98:	d11a      	bne.n	8001cd0 <HAL_RCC_OscConfig+0x374>
 8001c9a:	f7fe fcdf 	bl	800065c <HAL_GetTick>
 8001c9e:	1b40      	subs	r0, r0, r5
 8001ca0:	2802      	cmp	r0, #2
 8001ca2:	d9f5      	bls.n	8001c90 <HAL_RCC_OscConfig+0x334>
 8001ca4:	2003      	movs	r0, #3
 8001ca6:	bd38      	pop	{r3, r4, r5, pc}
 8001ca8:	4a8b      	ldr	r2, [pc, #556]	; (8001ed8 <HAL_RCC_OscConfig+0x57c>)
 8001caa:	6813      	ldr	r3, [r2, #0]
 8001cac:	f423 5380 	bic.w	r3, r3, #4096	; 0x1000
 8001cb0:	6013      	str	r3, [r2, #0]
 8001cb2:	f7fe fcd3 	bl	800065c <HAL_GetTick>
 8001cb6:	4605      	mov	r5, r0
 8001cb8:	4b87      	ldr	r3, [pc, #540]	; (8001ed8 <HAL_RCC_OscConfig+0x57c>)
 8001cba:	681b      	ldr	r3, [r3, #0]
 8001cbc:	f413 5f00 	tst.w	r3, #8192	; 0x2000
 8001cc0:	d006      	beq.n	8001cd0 <HAL_RCC_OscConfig+0x374>
 8001cc2:	f7fe fccb 	bl	800065c <HAL_GetTick>
 8001cc6:	1b40      	subs	r0, r0, r5
 8001cc8:	2802      	cmp	r0, #2
 8001cca:	d9f5      	bls.n	8001cb8 <HAL_RCC_OscConfig+0x35c>
 8001ccc:	2003      	movs	r0, #3
 8001cce:	bd38      	pop	{r3, r4, r5, pc}
 8001cd0:	6823      	ldr	r3, [r4, #0]
 8001cd2:	f013 0f04 	tst.w	r3, #4
 8001cd6:	d121      	bne.n	8001d1c <HAL_RCC_OscConfig+0x3c0>
 8001cd8:	6a63      	ldr	r3, [r4, #36]	; 0x24
 8001cda:	2b00      	cmp	r3, #0
 8001cdc:	f000 80f8 	beq.w	8001ed0 <HAL_RCC_OscConfig+0x574>
 8001ce0:	4a7d      	ldr	r2, [pc, #500]	; (8001ed8 <HAL_RCC_OscConfig+0x57c>)
 8001ce2:	6912      	ldr	r2, [r2, #16]
 8001ce4:	f002 0238 	and.w	r2, r2, #56	; 0x38
 8001ce8:	2a18      	cmp	r2, #24
 8001cea:	f000 80f3 	beq.w	8001ed4 <HAL_RCC_OscConfig+0x578>
 8001cee:	2b02      	cmp	r3, #2
 8001cf0:	d075      	beq.n	8001dde <HAL_RCC_OscConfig+0x482>
 8001cf2:	4a79      	ldr	r2, [pc, #484]	; (8001ed8 <HAL_RCC_OscConfig+0x57c>)
 8001cf4:	6813      	ldr	r3, [r2, #0]
 8001cf6:	f023 7380 	bic.w	r3, r3, #16777216	; 0x1000000
 8001cfa:	6013      	str	r3, [r2, #0]
 8001cfc:	f7fe fcae 	bl	800065c <HAL_GetTick>
 8001d00:	4604      	mov	r4, r0
 8001d02:	4b75      	ldr	r3, [pc, #468]	; (8001ed8 <HAL_RCC_OscConfig+0x57c>)
 8001d04:	681b      	ldr	r3, [r3, #0]
 8001d06:	f013 7f00 	tst.w	r3, #33554432	; 0x2000000
 8001d0a:	f000 80db 	beq.w	8001ec4 <HAL_RCC_OscConfig+0x568>
 8001d0e:	f7fe fca5 	bl	800065c <HAL_GetTick>
 8001d12:	1b00      	subs	r0, r0, r4
 8001d14:	2802      	cmp	r0, #2
 8001d16:	d9f4      	bls.n	8001d02 <HAL_RCC_OscConfig+0x3a6>
 8001d18:	2003      	movs	r0, #3
 8001d1a:	bd38      	pop	{r3, r4, r5, pc}
 8001d1c:	4a6f      	ldr	r2, [pc, #444]	; (8001edc <HAL_RCC_OscConfig+0x580>)
 8001d1e:	6813      	ldr	r3, [r2, #0]
 8001d20:	f443 7380 	orr.w	r3, r3, #256	; 0x100
 8001d24:	6013      	str	r3, [r2, #0]
 8001d26:	f7fe fc99 	bl	800065c <HAL_GetTick>
 8001d2a:	4605      	mov	r5, r0
 8001d2c:	4b6b      	ldr	r3, [pc, #428]	; (8001edc <HAL_RCC_OscConfig+0x580>)
 8001d2e:	681b      	ldr	r3, [r3, #0]
 8001d30:	f413 7f80 	tst.w	r3, #256	; 0x100
 8001d34:	d106      	bne.n	8001d44 <HAL_RCC_OscConfig+0x3e8>
 8001d36:	f7fe fc91 	bl	800065c <HAL_GetTick>
 8001d3a:	1b40      	subs	r0, r0, r5
 8001d3c:	2864      	cmp	r0, #100	; 0x64
 8001d3e:	d9f5      	bls.n	8001d2c <HAL_RCC_OscConfig+0x3d0>
 8001d40:	2003      	movs	r0, #3
 8001d42:	bd38      	pop	{r3, r4, r5, pc}
 8001d44:	68a3      	ldr	r3, [r4, #8]
 8001d46:	2b01      	cmp	r3, #1
 8001d48:	d01c      	beq.n	8001d84 <HAL_RCC_OscConfig+0x428>
 8001d4a:	bb0b      	cbnz	r3, 8001d90 <HAL_RCC_OscConfig+0x434>
 8001d4c:	4b62      	ldr	r3, [pc, #392]	; (8001ed8 <HAL_RCC_OscConfig+0x57c>)
 8001d4e:	6f1a      	ldr	r2, [r3, #112]	; 0x70
 8001d50:	f022 0201 	bic.w	r2, r2, #1
 8001d54:	671a      	str	r2, [r3, #112]	; 0x70
 8001d56:	6f1a      	ldr	r2, [r3, #112]	; 0x70
 8001d58:	f022 0204 	bic.w	r2, r2, #4
 8001d5c:	671a      	str	r2, [r3, #112]	; 0x70
 8001d5e:	68a3      	ldr	r3, [r4, #8]
 8001d60:	b363      	cbz	r3, 8001dbc <HAL_RCC_OscConfig+0x460>
 8001d62:	f7fe fc7b 	bl	800065c <HAL_GetTick>
 8001d66:	4605      	mov	r5, r0
 8001d68:	4b5b      	ldr	r3, [pc, #364]	; (8001ed8 <HAL_RCC_OscConfig+0x57c>)
 8001d6a:	6f1b      	ldr	r3, [r3, #112]	; 0x70
 8001d6c:	f013 0f02 	tst.w	r3, #2
 8001d70:	d1b2      	bne.n	8001cd8 <HAL_RCC_OscConfig+0x37c>
 8001d72:	f7fe fc73 	bl	800065c <HAL_GetTick>
 8001d76:	1b40      	subs	r0, r0, r5
 8001d78:	f241 3388 	movw	r3, #5000	; 0x1388
 8001d7c:	4298      	cmp	r0, r3
 8001d7e:	d9f3      	bls.n	8001d68 <HAL_RCC_OscConfig+0x40c>
 8001d80:	2003      	movs	r0, #3
 8001d82:	bd38      	pop	{r3, r4, r5, pc}
 8001d84:	4a54      	ldr	r2, [pc, #336]	; (8001ed8 <HAL_RCC_OscConfig+0x57c>)
 8001d86:	6f13      	ldr	r3, [r2, #112]	; 0x70
 8001d88:	f043 0301 	orr.w	r3, r3, #1
 8001d8c:	6713      	str	r3, [r2, #112]	; 0x70
 8001d8e:	e7e6      	b.n	8001d5e <HAL_RCC_OscConfig+0x402>
 8001d90:	2b05      	cmp	r3, #5
 8001d92:	d009      	beq.n	8001da8 <HAL_RCC_OscConfig+0x44c>
 8001d94:	4b50      	ldr	r3, [pc, #320]	; (8001ed8 <HAL_RCC_OscConfig+0x57c>)
 8001d96:	6f1a      	ldr	r2, [r3, #112]	; 0x70
 8001d98:	f022 0201 	bic.w	r2, r2, #1
 8001d9c:	671a      	str	r2, [r3, #112]	; 0x70
 8001d9e:	6f1a      	ldr	r2, [r3, #112]	; 0x70
 8001da0:	f022 0204 	bic.w	r2, r2, #4
 8001da4:	671a      	str	r2, [r3, #112]	; 0x70
 8001da6:	e7da      	b.n	8001d5e <HAL_RCC_OscConfig+0x402>
 8001da8:	4b4b      	ldr	r3, [pc, #300]	; (8001ed8 <HAL_RCC_OscConfig+0x57c>)
 8001daa:	6f1a      	ldr	r2, [r3, #112]	; 0x70
 8001dac:	f042 0204 	orr.w	r2, r2, #4
 8001db0:	671a      	str	r2, [r3, #112]	; 0x70
 8001db2:	6f1a      	ldr	r2, [r3, #112]	; 0x70
 8001db4:	f042 0201 	orr.w	r2, r2, #1
 8001db8:	671a      	str	r2, [r3, #112]	; 0x70
 8001dba:	e7d0      	b.n	8001d5e <HAL_RCC_OscConfig+0x402>
 8001dbc:	f7fe fc4e 	bl	800065c <HAL_GetTick>
 8001dc0:	4605      	mov	r5, r0
 8001dc2:	4b45      	ldr	r3, [pc, #276]	; (8001ed8 <HAL_RCC_OscConfig+0x57c>)
 8001dc4:	6f1b      	ldr	r3, [r3, #112]	; 0x70
 8001dc6:	f013 0f02 	tst.w	r3, #2
 8001dca:	d085      	beq.n	8001cd8 <HAL_RCC_OscConfig+0x37c>
 8001dcc:	f7fe fc46 	bl	800065c <HAL_GetTick>
 8001dd0:	1b40      	subs	r0, r0, r5
 8001dd2:	f241 3388 	movw	r3, #5000	; 0x1388
 8001dd6:	4298      	cmp	r0, r3
 8001dd8:	d9f3      	bls.n	8001dc2 <HAL_RCC_OscConfig+0x466>
 8001dda:	2003      	movs	r0, #3
 8001ddc:	bd38      	pop	{r3, r4, r5, pc}
 8001dde:	4a3e      	ldr	r2, [pc, #248]	; (8001ed8 <HAL_RCC_OscConfig+0x57c>)
 8001de0:	6813      	ldr	r3, [r2, #0]
 8001de2:	f023 7380 	bic.w	r3, r3, #16777216	; 0x1000000
 8001de6:	6013      	str	r3, [r2, #0]
 8001de8:	f7fe fc38 	bl	800065c <HAL_GetTick>
 8001dec:	4605      	mov	r5, r0
 8001dee:	4b3a      	ldr	r3, [pc, #232]	; (8001ed8 <HAL_RCC_OscConfig+0x57c>)
 8001df0:	681b      	ldr	r3, [r3, #0]
 8001df2:	f013 7f00 	tst.w	r3, #33554432	; 0x2000000
 8001df6:	d006      	beq.n	8001e06 <HAL_RCC_OscConfig+0x4aa>
 8001df8:	f7fe fc30 	bl	800065c <HAL_GetTick>
 8001dfc:	1b40      	subs	r0, r0, r5
 8001dfe:	2802      	cmp	r0, #2
 8001e00:	d9f5      	bls.n	8001dee <HAL_RCC_OscConfig+0x492>
 8001e02:	2003      	movs	r0, #3
 8001e04:	bd38      	pop	{r3, r4, r5, pc}
 8001e06:	4b34      	ldr	r3, [pc, #208]	; (8001ed8 <HAL_RCC_OscConfig+0x57c>)
 8001e08:	6a99      	ldr	r1, [r3, #40]	; 0x28
 8001e0a:	4a35      	ldr	r2, [pc, #212]	; (8001ee0 <HAL_RCC_OscConfig+0x584>)
 8001e0c:	400a      	ands	r2, r1
 8001e0e:	6aa1      	ldr	r1, [r4, #40]	; 0x28
 8001e10:	6ae0      	ldr	r0, [r4, #44]	; 0x2c
 8001e12:	ea41 1100 	orr.w	r1, r1, r0, lsl #4
 8001e16:	430a      	orrs	r2, r1
 8001e18:	629a      	str	r2, [r3, #40]	; 0x28
 8001e1a:	6b22      	ldr	r2, [r4, #48]	; 0x30
 8001e1c:	3a01      	subs	r2, #1
 8001e1e:	f3c2 0208 	ubfx	r2, r2, #0, #9
 8001e22:	6b61      	ldr	r1, [r4, #52]	; 0x34
 8001e24:	3901      	subs	r1, #1
 8001e26:	0249      	lsls	r1, r1, #9
 8001e28:	b289      	uxth	r1, r1
 8001e2a:	430a      	orrs	r2, r1
 8001e2c:	6ba1      	ldr	r1, [r4, #56]	; 0x38
 8001e2e:	3901      	subs	r1, #1
 8001e30:	0409      	lsls	r1, r1, #16
 8001e32:	f401 01fe 	and.w	r1, r1, #8323072	; 0x7f0000
 8001e36:	430a      	orrs	r2, r1
 8001e38:	6be1      	ldr	r1, [r4, #60]	; 0x3c
 8001e3a:	3901      	subs	r1, #1
 8001e3c:	0609      	lsls	r1, r1, #24
 8001e3e:	f001 41fe 	and.w	r1, r1, #2130706432	; 0x7f000000
 8001e42:	430a      	orrs	r2, r1
 8001e44:	631a      	str	r2, [r3, #48]	; 0x30
 8001e46:	6b59      	ldr	r1, [r3, #52]	; 0x34
 8001e48:	4a26      	ldr	r2, [pc, #152]	; (8001ee4 <HAL_RCC_OscConfig+0x588>)
 8001e4a:	400a      	ands	r2, r1
 8001e4c:	6ca0      	ldr	r0, [r4, #72]	; 0x48
 8001e4e:	f64f 71f8 	movw	r1, #65528	; 0xfff8
 8001e52:	fa91 f1a1 	rbit	r1, r1
 8001e56:	fab1 f181 	clz	r1, r1
 8001e5a:	fa00 f101 	lsl.w	r1, r0, r1
 8001e5e:	430a      	orrs	r2, r1
 8001e60:	635a      	str	r2, [r3, #52]	; 0x34
 8001e62:	6ada      	ldr	r2, [r3, #44]	; 0x2c
 8001e64:	f022 020c 	bic.w	r2, r2, #12
 8001e68:	6c21      	ldr	r1, [r4, #64]	; 0x40
 8001e6a:	430a      	orrs	r2, r1
 8001e6c:	62da      	str	r2, [r3, #44]	; 0x2c
 8001e6e:	6ada      	ldr	r2, [r3, #44]	; 0x2c
 8001e70:	f022 0202 	bic.w	r2, r2, #2
 8001e74:	6c61      	ldr	r1, [r4, #68]	; 0x44
 8001e76:	430a      	orrs	r2, r1
 8001e78:	62da      	str	r2, [r3, #44]	; 0x2c
 8001e7a:	6ada      	ldr	r2, [r3, #44]	; 0x2c
 8001e7c:	f442 3280 	orr.w	r2, r2, #65536	; 0x10000
 8001e80:	62da      	str	r2, [r3, #44]	; 0x2c
 8001e82:	6ada      	ldr	r2, [r3, #44]	; 0x2c
 8001e84:	f442 3200 	orr.w	r2, r2, #131072	; 0x20000
 8001e88:	62da      	str	r2, [r3, #44]	; 0x2c
 8001e8a:	6ada      	ldr	r2, [r3, #44]	; 0x2c
 8001e8c:	f442 2280 	orr.w	r2, r2, #262144	; 0x40000
 8001e90:	62da      	str	r2, [r3, #44]	; 0x2c
 8001e92:	6ada      	ldr	r2, [r3, #44]	; 0x2c
 8001e94:	f042 0201 	orr.w	r2, r2, #1
 8001e98:	62da      	str	r2, [r3, #44]	; 0x2c
 8001e9a:	681a      	ldr	r2, [r3, #0]
 8001e9c:	f042 7280 	orr.w	r2, r2, #16777216	; 0x1000000
 8001ea0:	601a      	str	r2, [r3, #0]
 8001ea2:	f7fe fbdb 	bl	800065c <HAL_GetTick>
 8001ea6:	4604      	mov	r4, r0
 8001ea8:	4b0b      	ldr	r3, [pc, #44]	; (8001ed8 <HAL_RCC_OscConfig+0x57c>)
 8001eaa:	681b      	ldr	r3, [r3, #0]
 8001eac:	f013 7f00 	tst.w	r3, #33554432	; 0x2000000
 8001eb0:	d106      	bne.n	8001ec0 <HAL_RCC_OscConfig+0x564>
 8001eb2:	f7fe fbd3 	bl	800065c <HAL_GetTick>
 8001eb6:	1b00      	subs	r0, r0, r4
 8001eb8:	2802      	cmp	r0, #2
 8001eba:	d9f5      	bls.n	8001ea8 <HAL_RCC_OscConfig+0x54c>
 8001ebc:	2003      	movs	r0, #3
 8001ebe:	bd38      	pop	{r3, r4, r5, pc}
 8001ec0:	2000      	movs	r0, #0
 8001ec2:	bd38      	pop	{r3, r4, r5, pc}
 8001ec4:	2000      	movs	r0, #0
 8001ec6:	bd38      	pop	{r3, r4, r5, pc}
 8001ec8:	2001      	movs	r0, #1
 8001eca:	bd38      	pop	{r3, r4, r5, pc}
 8001ecc:	2001      	movs	r0, #1
 8001ece:	bd38      	pop	{r3, r4, r5, pc}
 8001ed0:	2000      	movs	r0, #0
 8001ed2:	bd38      	pop	{r3, r4, r5, pc}
 8001ed4:	2001      	movs	r0, #1
 8001ed6:	bd38      	pop	{r3, r4, r5, pc}
 8001ed8:	58024400 	.word	0x58024400
 8001edc:	58024800 	.word	0x58024800
 8001ee0:	fffffc0c 	.word	0xfffffc0c
 8001ee4:	ffff0007 	.word	0xffff0007

08001ee8 <HAL_RCC_GetSysClockFreq>:
 8001ee8:	4b6d      	ldr	r3, [pc, #436]	; (80020a0 <HAL_RCC_GetSysClockFreq+0x1b8>)
 8001eea:	691b      	ldr	r3, [r3, #16]
 8001eec:	f003 0338 	and.w	r3, r3, #56	; 0x38
 8001ef0:	2b10      	cmp	r3, #16
 8001ef2:	f000 80d2 	beq.w	800209a <HAL_RCC_GetSysClockFreq+0x1b2>
 8001ef6:	2b18      	cmp	r3, #24
 8001ef8:	d010      	beq.n	8001f1c <HAL_RCC_GetSysClockFreq+0x34>
 8001efa:	b10b      	cbz	r3, 8001f00 <HAL_RCC_GetSysClockFreq+0x18>
 8001efc:	4869      	ldr	r0, [pc, #420]	; (80020a4 <HAL_RCC_GetSysClockFreq+0x1bc>)
 8001efe:	4770      	bx	lr
 8001f00:	4b67      	ldr	r3, [pc, #412]	; (80020a0 <HAL_RCC_GetSysClockFreq+0x1b8>)
 8001f02:	681b      	ldr	r3, [r3, #0]
 8001f04:	f013 0f20 	tst.w	r3, #32
 8001f08:	d101      	bne.n	8001f0e <HAL_RCC_GetSysClockFreq+0x26>
 8001f0a:	4867      	ldr	r0, [pc, #412]	; (80020a8 <HAL_RCC_GetSysClockFreq+0x1c0>)
 8001f0c:	4770      	bx	lr
 8001f0e:	4b64      	ldr	r3, [pc, #400]	; (80020a0 <HAL_RCC_GetSysClockFreq+0x1b8>)
 8001f10:	681b      	ldr	r3, [r3, #0]
 8001f12:	f3c3 03c1 	ubfx	r3, r3, #3, #2
 8001f16:	4864      	ldr	r0, [pc, #400]	; (80020a8 <HAL_RCC_GetSysClockFreq+0x1c0>)
 8001f18:	40d8      	lsrs	r0, r3
 8001f1a:	4770      	bx	lr
 8001f1c:	b4f0      	push	{r4, r5, r6, r7}
 8001f1e:	4d60      	ldr	r5, [pc, #384]	; (80020a0 <HAL_RCC_GetSysClockFreq+0x1b8>)
 8001f20:	6aac      	ldr	r4, [r5, #40]	; 0x28
 8001f22:	f004 0403 	and.w	r4, r4, #3
 8001f26:	6aaf      	ldr	r7, [r5, #40]	; 0x28
 8001f28:	f3c7 1705 	ubfx	r7, r7, #4, #6
 8001f2c:	6aee      	ldr	r6, [r5, #44]	; 0x2c
 8001f2e:	f006 0601 	and.w	r6, r6, #1
 8001f32:	6b6b      	ldr	r3, [r5, #52]	; 0x34
 8001f34:	f3c3 03cc 	ubfx	r3, r3, #3, #13
 8001f38:	fb03 f306 	mul.w	r3, r3, r6
 8001f3c:	ee07 3a90 	vmov	s15, r3
 8001f40:	eef8 7a67 	vcvt.f32.u32	s15, s15
 8001f44:	2c01      	cmp	r4, #1
 8001f46:	d060      	beq.n	800200a <HAL_RCC_GetSysClockFreq+0x122>
 8001f48:	b1f4      	cbz	r4, 8001f88 <HAL_RCC_GetSysClockFreq+0xa0>
 8001f4a:	2c02      	cmp	r4, #2
 8001f4c:	f000 8089 	beq.w	8002062 <HAL_RCC_GetSysClockFreq+0x17a>
 8001f50:	4b54      	ldr	r3, [pc, #336]	; (80020a4 <HAL_RCC_GetSysClockFreq+0x1bc>)
 8001f52:	fbb3 f3f7 	udiv	r3, r3, r7
 8001f56:	ee07 3a10 	vmov	s14, r3
 8001f5a:	eeb8 7a47 	vcvt.f32.u32	s14, s14
 8001f5e:	4b50      	ldr	r3, [pc, #320]	; (80020a0 <HAL_RCC_GetSysClockFreq+0x1b8>)
 8001f60:	6b1b      	ldr	r3, [r3, #48]	; 0x30
 8001f62:	f3c3 0308 	ubfx	r3, r3, #0, #9
 8001f66:	eddf 6a51 	vldr	s13, [pc, #324]	; 80020ac <HAL_RCC_GetSysClockFreq+0x1c4>
 8001f6a:	ee67 7aa6 	vmul.f32	s15, s15, s13
 8001f6e:	ee06 3a90 	vmov	s13, r3
 8001f72:	eef8 6a66 	vcvt.f32.u32	s13, s13
 8001f76:	ee76 7aa7 	vadd.f32	s15, s13, s15
 8001f7a:	eef7 6a00 	vmov.f32	s13, #112	; 0x3f800000  1.0
 8001f7e:	ee77 7aa6 	vadd.f32	s15, s15, s13
 8001f82:	ee27 7a27 	vmul.f32	s14, s14, s15
 8001f86:	e05b      	b.n	8002040 <HAL_RCC_GetSysClockFreq+0x158>
 8001f88:	4b45      	ldr	r3, [pc, #276]	; (80020a0 <HAL_RCC_GetSysClockFreq+0x1b8>)
 8001f8a:	681b      	ldr	r3, [r3, #0]
 8001f8c:	f013 0f20 	tst.w	r3, #32
 8001f90:	d01f      	beq.n	8001fd2 <HAL_RCC_GetSysClockFreq+0xea>
 8001f92:	4a43      	ldr	r2, [pc, #268]	; (80020a0 <HAL_RCC_GetSysClockFreq+0x1b8>)
 8001f94:	6813      	ldr	r3, [r2, #0]
 8001f96:	f3c3 03c1 	ubfx	r3, r3, #3, #2
 8001f9a:	4843      	ldr	r0, [pc, #268]	; (80020a8 <HAL_RCC_GetSysClockFreq+0x1c0>)
 8001f9c:	40d8      	lsrs	r0, r3
 8001f9e:	fbb0 f3f7 	udiv	r3, r0, r7
 8001fa2:	ee07 3a10 	vmov	s14, r3
 8001fa6:	eeb8 7a47 	vcvt.f32.u32	s14, s14
 8001faa:	6b13      	ldr	r3, [r2, #48]	; 0x30
 8001fac:	f3c3 0308 	ubfx	r3, r3, #0, #9
 8001fb0:	eddf 6a3e 	vldr	s13, [pc, #248]	; 80020ac <HAL_RCC_GetSysClockFreq+0x1c4>
 8001fb4:	ee67 7aa6 	vmul.f32	s15, s15, s13
 8001fb8:	ee06 3a90 	vmov	s13, r3
 8001fbc:	eef8 6a66 	vcvt.f32.u32	s13, s13
 8001fc0:	ee76 7aa7 	vadd.f32	s15, s13, s15
 8001fc4:	eef7 6a00 	vmov.f32	s13, #112	; 0x3f800000  1.0
 8001fc8:	ee77 7aa6 	vadd.f32	s15, s15, s13
 8001fcc:	ee27 7a27 	vmul.f32	s14, s14, s15
 8001fd0:	e036      	b.n	8002040 <HAL_RCC_GetSysClockFreq+0x158>
 8001fd2:	4835      	ldr	r0, [pc, #212]	; (80020a8 <HAL_RCC_GetSysClockFreq+0x1c0>)
 8001fd4:	fbb0 f3f7 	udiv	r3, r0, r7
 8001fd8:	ee07 3a10 	vmov	s14, r3
 8001fdc:	eeb8 7a47 	vcvt.f32.u32	s14, s14
 8001fe0:	4b2f      	ldr	r3, [pc, #188]	; (80020a0 <HAL_RCC_GetSysClockFreq+0x1b8>)
 8001fe2:	6b1b      	ldr	r3, [r3, #48]	; 0x30
 8001fe4:	f3c3 0308 	ubfx	r3, r3, #0, #9
 8001fe8:	eddf 6a30 	vldr	s13, [pc, #192]	; 80020ac <HAL_RCC_GetSysClockFreq+0x1c4>
 8001fec:	ee67 7aa6 	vmul.f32	s15, s15, s13
 8001ff0:	ee06 3a90 	vmov	s13, r3
 8001ff4:	eef8 6a66 	vcvt.f32.u32	s13, s13
 8001ff8:	ee76 7aa7 	vadd.f32	s15, s13, s15
 8001ffc:	eef7 6a00 	vmov.f32	s13, #112	; 0x3f800000  1.0
 8002000:	ee77 7aa6 	vadd.f32	s15, s15, s13
 8002004:	ee27 7a27 	vmul.f32	s14, s14, s15
 8002008:	e01a      	b.n	8002040 <HAL_RCC_GetSysClockFreq+0x158>
 800200a:	4926      	ldr	r1, [pc, #152]	; (80020a4 <HAL_RCC_GetSysClockFreq+0x1bc>)
 800200c:	fbb1 f3f7 	udiv	r3, r1, r7
 8002010:	ee07 3a10 	vmov	s14, r3
 8002014:	eeb8 7a47 	vcvt.f32.u32	s14, s14
 8002018:	4b21      	ldr	r3, [pc, #132]	; (80020a0 <HAL_RCC_GetSysClockFreq+0x1b8>)
 800201a:	6b1b      	ldr	r3, [r3, #48]	; 0x30
 800201c:	f3c3 0308 	ubfx	r3, r3, #0, #9
 8002020:	eddf 6a22 	vldr	s13, [pc, #136]	; 80020ac <HAL_RCC_GetSysClockFreq+0x1c4>
 8002024:	ee67 7aa6 	vmul.f32	s15, s15, s13
 8002028:	ee06 3a90 	vmov	s13, r3
 800202c:	eef8 6a66 	vcvt.f32.u32	s13, s13
 8002030:	ee76 7aa7 	vadd.f32	s15, s13, s15
 8002034:	eef7 6a00 	vmov.f32	s13, #112	; 0x3f800000  1.0
 8002038:	ee77 7aa6 	vadd.f32	s15, s15, s13
 800203c:	ee27 7a27 	vmul.f32	s14, s14, s15
 8002040:	4b17      	ldr	r3, [pc, #92]	; (80020a0 <HAL_RCC_GetSysClockFreq+0x1b8>)
 8002042:	6b1b      	ldr	r3, [r3, #48]	; 0x30
 8002044:	f3c3 2346 	ubfx	r3, r3, #9, #7
 8002048:	3301      	adds	r3, #1
 800204a:	ee07 3a90 	vmov	s15, r3
 800204e:	eef8 6a67 	vcvt.f32.u32	s13, s15
 8002052:	eec7 7a26 	vdiv.f32	s15, s14, s13
 8002056:	eefc 7ae7 	vcvt.u32.f32	s15, s15
 800205a:	ee17 0a90 	vmov	r0, s15
 800205e:	bcf0      	pop	{r4, r5, r6, r7}
 8002060:	4770      	bx	lr
 8002062:	4a13      	ldr	r2, [pc, #76]	; (80020b0 <HAL_RCC_GetSysClockFreq+0x1c8>)
 8002064:	fbb2 f3f7 	udiv	r3, r2, r7
 8002068:	ee07 3a10 	vmov	s14, r3
 800206c:	eeb8 7a47 	vcvt.f32.u32	s14, s14
 8002070:	4b0b      	ldr	r3, [pc, #44]	; (80020a0 <HAL_RCC_GetSysClockFreq+0x1b8>)
 8002072:	6b1b      	ldr	r3, [r3, #48]	; 0x30
 8002074:	f3c3 0308 	ubfx	r3, r3, #0, #9
 8002078:	eddf 6a0c 	vldr	s13, [pc, #48]	; 80020ac <HAL_RCC_GetSysClockFreq+0x1c4>
 800207c:	ee67 7aa6 	vmul.f32	s15, s15, s13
 8002080:	ee06 3a90 	vmov	s13, r3
 8002084:	eef8 6a66 	vcvt.f32.u32	s13, s13
 8002088:	ee76 7aa7 	vadd.f32	s15, s13, s15
 800208c:	eef7 6a00 	vmov.f32	s13, #112	; 0x3f800000  1.0
 8002090:	ee77 7aa6 	vadd.f32	s15, s15, s13
 8002094:	ee27 7a27 	vmul.f32	s14, s14, s15
 8002098:	e7d2      	b.n	8002040 <HAL_RCC_GetSysClockFreq+0x158>
 800209a:	4805      	ldr	r0, [pc, #20]	; (80020b0 <HAL_RCC_GetSysClockFreq+0x1c8>)
 800209c:	4770      	bx	lr
 800209e:	bf00      	nop
 80020a0:	58024400 	.word	0x58024400
 80020a4:	003d0900 	.word	0x003d0900
 80020a8:	03d09000 	.word	0x03d09000
 80020ac:	39000000 	.word	0x39000000
 80020b0:	007a1200 	.word	0x007a1200

080020b4 <HAL_RCC_ClockConfig>:
 80020b4:	4b77      	ldr	r3, [pc, #476]	; (8002294 <HAL_RCC_ClockConfig+0x1e0>)
 80020b6:	681b      	ldr	r3, [r3, #0]
 80020b8:	f003 0307 	and.w	r3, r3, #7
 80020bc:	428b      	cmp	r3, r1
 80020be:	d20c      	bcs.n	80020da <HAL_RCC_ClockConfig+0x26>
 80020c0:	4a74      	ldr	r2, [pc, #464]	; (8002294 <HAL_RCC_ClockConfig+0x1e0>)
 80020c2:	6813      	ldr	r3, [r2, #0]
 80020c4:	f023 0307 	bic.w	r3, r3, #7
 80020c8:	430b      	orrs	r3, r1
 80020ca:	6013      	str	r3, [r2, #0]
 80020cc:	6813      	ldr	r3, [r2, #0]
 80020ce:	f003 0307 	and.w	r3, r3, #7
 80020d2:	4299      	cmp	r1, r3
 80020d4:	d001      	beq.n	80020da <HAL_RCC_ClockConfig+0x26>
 80020d6:	2001      	movs	r0, #1
 80020d8:	4770      	bx	lr
 80020da:	b570      	push	{r4, r5, r6, lr}
 80020dc:	6803      	ldr	r3, [r0, #0]
 80020de:	f013 0f02 	tst.w	r3, #2
 80020e2:	d006      	beq.n	80020f2 <HAL_RCC_ClockConfig+0x3e>
 80020e4:	4a6c      	ldr	r2, [pc, #432]	; (8002298 <HAL_RCC_ClockConfig+0x1e4>)
 80020e6:	6993      	ldr	r3, [r2, #24]
 80020e8:	f023 030f 	bic.w	r3, r3, #15
 80020ec:	68c4      	ldr	r4, [r0, #12]
 80020ee:	4323      	orrs	r3, r4
 80020f0:	6193      	str	r3, [r2, #24]
 80020f2:	460d      	mov	r5, r1
 80020f4:	4604      	mov	r4, r0
 80020f6:	6803      	ldr	r3, [r0, #0]
 80020f8:	f013 0f01 	tst.w	r3, #1
 80020fc:	d072      	beq.n	80021e4 <HAL_RCC_ClockConfig+0x130>
 80020fe:	4a66      	ldr	r2, [pc, #408]	; (8002298 <HAL_RCC_ClockConfig+0x1e4>)
 8002100:	6993      	ldr	r3, [r2, #24]
 8002102:	f423 6370 	bic.w	r3, r3, #3840	; 0xf00
 8002106:	6881      	ldr	r1, [r0, #8]
 8002108:	430b      	orrs	r3, r1
 800210a:	6193      	str	r3, [r2, #24]
 800210c:	6843      	ldr	r3, [r0, #4]
 800210e:	2b02      	cmp	r3, #2
 8002110:	d027      	beq.n	8002162 <HAL_RCC_ClockConfig+0xae>
 8002112:	2b03      	cmp	r3, #3
 8002114:	d02b      	beq.n	800216e <HAL_RCC_ClockConfig+0xba>
 8002116:	2b01      	cmp	r3, #1
 8002118:	d030      	beq.n	800217c <HAL_RCC_ClockConfig+0xc8>
 800211a:	4a5f      	ldr	r2, [pc, #380]	; (8002298 <HAL_RCC_ClockConfig+0x1e4>)
 800211c:	6812      	ldr	r2, [r2, #0]
 800211e:	f012 0f04 	tst.w	r2, #4
 8002122:	f000 80b5 	beq.w	8002290 <HAL_RCC_ClockConfig+0x1dc>
 8002126:	495c      	ldr	r1, [pc, #368]	; (8002298 <HAL_RCC_ClockConfig+0x1e4>)
 8002128:	690a      	ldr	r2, [r1, #16]
 800212a:	f022 0207 	bic.w	r2, r2, #7
 800212e:	4313      	orrs	r3, r2
 8002130:	610b      	str	r3, [r1, #16]
 8002132:	f7fe fa93 	bl	800065c <HAL_GetTick>
 8002136:	4606      	mov	r6, r0
 8002138:	6863      	ldr	r3, [r4, #4]
 800213a:	2b02      	cmp	r3, #2
 800213c:	d025      	beq.n	800218a <HAL_RCC_ClockConfig+0xd6>
 800213e:	2b03      	cmp	r3, #3
 8002140:	d032      	beq.n	80021a8 <HAL_RCC_ClockConfig+0xf4>
 8002142:	2b01      	cmp	r3, #1
 8002144:	d03f      	beq.n	80021c6 <HAL_RCC_ClockConfig+0x112>
 8002146:	4b54      	ldr	r3, [pc, #336]	; (8002298 <HAL_RCC_ClockConfig+0x1e4>)
 8002148:	691b      	ldr	r3, [r3, #16]
 800214a:	f013 0f38 	tst.w	r3, #56	; 0x38
 800214e:	d049      	beq.n	80021e4 <HAL_RCC_ClockConfig+0x130>
 8002150:	f7fe fa84 	bl	800065c <HAL_GetTick>
 8002154:	1b80      	subs	r0, r0, r6
 8002156:	f241 3388 	movw	r3, #5000	; 0x1388
 800215a:	4298      	cmp	r0, r3
 800215c:	d9f3      	bls.n	8002146 <HAL_RCC_ClockConfig+0x92>
 800215e:	2003      	movs	r0, #3
 8002160:	bd70      	pop	{r4, r5, r6, pc}
 8002162:	6812      	ldr	r2, [r2, #0]
 8002164:	f412 3f00 	tst.w	r2, #131072	; 0x20000
 8002168:	d1dd      	bne.n	8002126 <HAL_RCC_ClockConfig+0x72>
 800216a:	2001      	movs	r0, #1
 800216c:	bd70      	pop	{r4, r5, r6, pc}
 800216e:	4a4a      	ldr	r2, [pc, #296]	; (8002298 <HAL_RCC_ClockConfig+0x1e4>)
 8002170:	6812      	ldr	r2, [r2, #0]
 8002172:	f012 7f00 	tst.w	r2, #33554432	; 0x2000000
 8002176:	d1d6      	bne.n	8002126 <HAL_RCC_ClockConfig+0x72>
 8002178:	2001      	movs	r0, #1
 800217a:	bd70      	pop	{r4, r5, r6, pc}
 800217c:	4a46      	ldr	r2, [pc, #280]	; (8002298 <HAL_RCC_ClockConfig+0x1e4>)
 800217e:	6812      	ldr	r2, [r2, #0]
 8002180:	f412 7f80 	tst.w	r2, #256	; 0x100
 8002184:	d1cf      	bne.n	8002126 <HAL_RCC_ClockConfig+0x72>
 8002186:	2001      	movs	r0, #1
 8002188:	bd70      	pop	{r4, r5, r6, pc}
 800218a:	4b43      	ldr	r3, [pc, #268]	; (8002298 <HAL_RCC_ClockConfig+0x1e4>)
 800218c:	691b      	ldr	r3, [r3, #16]
 800218e:	f003 0338 	and.w	r3, r3, #56	; 0x38
 8002192:	2b10      	cmp	r3, #16
 8002194:	d026      	beq.n	80021e4 <HAL_RCC_ClockConfig+0x130>
 8002196:	f7fe fa61 	bl	800065c <HAL_GetTick>
 800219a:	1b80      	subs	r0, r0, r6
 800219c:	f241 3388 	movw	r3, #5000	; 0x1388
 80021a0:	4298      	cmp	r0, r3
 80021a2:	d9f2      	bls.n	800218a <HAL_RCC_ClockConfig+0xd6>
 80021a4:	2003      	movs	r0, #3
 80021a6:	bd70      	pop	{r4, r5, r6, pc}
 80021a8:	4b3b      	ldr	r3, [pc, #236]	; (8002298 <HAL_RCC_ClockConfig+0x1e4>)
 80021aa:	691b      	ldr	r3, [r3, #16]
 80021ac:	f003 0338 	and.w	r3, r3, #56	; 0x38
 80021b0:	2b18      	cmp	r3, #24
 80021b2:	d017      	beq.n	80021e4 <HAL_RCC_ClockConfig+0x130>
 80021b4:	f7fe fa52 	bl	800065c <HAL_GetTick>
 80021b8:	1b80      	subs	r0, r0, r6
 80021ba:	f241 3388 	movw	r3, #5000	; 0x1388
 80021be:	4298      	cmp	r0, r3
 80021c0:	d9f2      	bls.n	80021a8 <HAL_RCC_ClockConfig+0xf4>
 80021c2:	2003      	movs	r0, #3
 80021c4:	bd70      	pop	{r4, r5, r6, pc}
 80021c6:	4b34      	ldr	r3, [pc, #208]	; (8002298 <HAL_RCC_ClockConfig+0x1e4>)
 80021c8:	691b      	ldr	r3, [r3, #16]
 80021ca:	f003 0338 	and.w	r3, r3, #56	; 0x38
 80021ce:	2b08      	cmp	r3, #8
 80021d0:	d008      	beq.n	80021e4 <HAL_RCC_ClockConfig+0x130>
 80021d2:	f7fe fa43 	bl	800065c <HAL_GetTick>
 80021d6:	1b80      	subs	r0, r0, r6
 80021d8:	f241 3388 	movw	r3, #5000	; 0x1388
 80021dc:	4298      	cmp	r0, r3
 80021de:	d9f2      	bls.n	80021c6 <HAL_RCC_ClockConfig+0x112>
 80021e0:	2003      	movs	r0, #3
 80021e2:	bd70      	pop	{r4, r5, r6, pc}
 80021e4:	4b2b      	ldr	r3, [pc, #172]	; (8002294 <HAL_RCC_ClockConfig+0x1e0>)
 80021e6:	681b      	ldr	r3, [r3, #0]
 80021e8:	f003 0307 	and.w	r3, r3, #7
 80021ec:	429d      	cmp	r5, r3
 80021ee:	d20c      	bcs.n	800220a <HAL_RCC_ClockConfig+0x156>
 80021f0:	4a28      	ldr	r2, [pc, #160]	; (8002294 <HAL_RCC_ClockConfig+0x1e0>)
 80021f2:	6813      	ldr	r3, [r2, #0]
 80021f4:	f023 0307 	bic.w	r3, r3, #7
 80021f8:	432b      	orrs	r3, r5
 80021fa:	6013      	str	r3, [r2, #0]
 80021fc:	6813      	ldr	r3, [r2, #0]
 80021fe:	f003 0307 	and.w	r3, r3, #7
 8002202:	429d      	cmp	r5, r3
 8002204:	d001      	beq.n	800220a <HAL_RCC_ClockConfig+0x156>
 8002206:	2001      	movs	r0, #1
 8002208:	bd70      	pop	{r4, r5, r6, pc}
 800220a:	6823      	ldr	r3, [r4, #0]
 800220c:	f013 0f04 	tst.w	r3, #4
 8002210:	d006      	beq.n	8002220 <HAL_RCC_ClockConfig+0x16c>
 8002212:	4a21      	ldr	r2, [pc, #132]	; (8002298 <HAL_RCC_ClockConfig+0x1e4>)
 8002214:	6993      	ldr	r3, [r2, #24]
 8002216:	f023 0370 	bic.w	r3, r3, #112	; 0x70
 800221a:	6921      	ldr	r1, [r4, #16]
 800221c:	430b      	orrs	r3, r1
 800221e:	6193      	str	r3, [r2, #24]
 8002220:	6823      	ldr	r3, [r4, #0]
 8002222:	f013 0f08 	tst.w	r3, #8
 8002226:	d006      	beq.n	8002236 <HAL_RCC_ClockConfig+0x182>
 8002228:	4a1b      	ldr	r2, [pc, #108]	; (8002298 <HAL_RCC_ClockConfig+0x1e4>)
 800222a:	69d3      	ldr	r3, [r2, #28]
 800222c:	f023 0370 	bic.w	r3, r3, #112	; 0x70
 8002230:	6961      	ldr	r1, [r4, #20]
 8002232:	430b      	orrs	r3, r1
 8002234:	61d3      	str	r3, [r2, #28]
 8002236:	6823      	ldr	r3, [r4, #0]
 8002238:	f013 0f10 	tst.w	r3, #16
 800223c:	d006      	beq.n	800224c <HAL_RCC_ClockConfig+0x198>
 800223e:	4a16      	ldr	r2, [pc, #88]	; (8002298 <HAL_RCC_ClockConfig+0x1e4>)
 8002240:	69d3      	ldr	r3, [r2, #28]
 8002242:	f423 63e0 	bic.w	r3, r3, #1792	; 0x700
 8002246:	69a1      	ldr	r1, [r4, #24]
 8002248:	430b      	orrs	r3, r1
 800224a:	61d3      	str	r3, [r2, #28]
 800224c:	6823      	ldr	r3, [r4, #0]
 800224e:	f013 0f20 	tst.w	r3, #32
 8002252:	d006      	beq.n	8002262 <HAL_RCC_ClockConfig+0x1ae>
 8002254:	4a10      	ldr	r2, [pc, #64]	; (8002298 <HAL_RCC_ClockConfig+0x1e4>)
 8002256:	6a13      	ldr	r3, [r2, #32]
 8002258:	f023 0370 	bic.w	r3, r3, #112	; 0x70
 800225c:	69e1      	ldr	r1, [r4, #28]
 800225e:	430b      	orrs	r3, r1
 8002260:	6213      	str	r3, [r2, #32]
 8002262:	f7ff fe41 	bl	8001ee8 <HAL_RCC_GetSysClockFreq>
 8002266:	4b0c      	ldr	r3, [pc, #48]	; (8002298 <HAL_RCC_ClockConfig+0x1e4>)
 8002268:	699b      	ldr	r3, [r3, #24]
 800226a:	f403 6370 	and.w	r3, r3, #3840	; 0xf00
 800226e:	f44f 7280 	mov.w	r2, #256	; 0x100
 8002272:	fa92 f2a2 	rbit	r2, r2
 8002276:	fab2 f282 	clz	r2, r2
 800227a:	40d3      	lsrs	r3, r2
 800227c:	4a07      	ldr	r2, [pc, #28]	; (800229c <HAL_RCC_ClockConfig+0x1e8>)
 800227e:	5cd3      	ldrb	r3, [r2, r3]
 8002280:	40d8      	lsrs	r0, r3
 8002282:	4b07      	ldr	r3, [pc, #28]	; (80022a0 <HAL_RCC_ClockConfig+0x1ec>)
 8002284:	6018      	str	r0, [r3, #0]
 8002286:	2000      	movs	r0, #0
 8002288:	f7fe f9a6 	bl	80005d8 <HAL_InitTick>
 800228c:	2000      	movs	r0, #0
 800228e:	bd70      	pop	{r4, r5, r6, pc}
 8002290:	2001      	movs	r0, #1
 8002292:	bd70      	pop	{r4, r5, r6, pc}
 8002294:	52002000 	.word	0x52002000
 8002298:	58024400 	.word	0x58024400
 800229c:	08007b94 	.word	0x08007b94
 80022a0:	20000010 	.word	0x20000010

080022a4 <HAL_RCC_GetHCLKFreq>:
 80022a4:	b508      	push	{r3, lr}
 80022a6:	f000 ffbf 	bl	8003228 <HAL_RCCEx_GetD1SysClockFreq>
 80022aa:	4b08      	ldr	r3, [pc, #32]	; (80022cc <HAL_RCC_GetHCLKFreq+0x28>)
 80022ac:	699b      	ldr	r3, [r3, #24]
 80022ae:	f003 030f 	and.w	r3, r3, #15
 80022b2:	2201      	movs	r2, #1
 80022b4:	fa92 f2a2 	rbit	r2, r2
 80022b8:	fab2 f282 	clz	r2, r2
 80022bc:	40d3      	lsrs	r3, r2
 80022be:	4a04      	ldr	r2, [pc, #16]	; (80022d0 <HAL_RCC_GetHCLKFreq+0x2c>)
 80022c0:	5cd3      	ldrb	r3, [r2, r3]
 80022c2:	40d8      	lsrs	r0, r3
 80022c4:	4b03      	ldr	r3, [pc, #12]	; (80022d4 <HAL_RCC_GetHCLKFreq+0x30>)
 80022c6:	6018      	str	r0, [r3, #0]
 80022c8:	bd08      	pop	{r3, pc}
 80022ca:	bf00      	nop
 80022cc:	58024400 	.word	0x58024400
 80022d0:	08007b94 	.word	0x08007b94
 80022d4:	20000014 	.word	0x20000014

080022d8 <HAL_RCC_GetPCLK1Freq>:
 80022d8:	b508      	push	{r3, lr}
 80022da:	f7ff ffe3 	bl	80022a4 <HAL_RCC_GetHCLKFreq>
 80022de:	4b07      	ldr	r3, [pc, #28]	; (80022fc <HAL_RCC_GetPCLK1Freq+0x24>)
 80022e0:	69db      	ldr	r3, [r3, #28]
 80022e2:	f003 0370 	and.w	r3, r3, #112	; 0x70
 80022e6:	2210      	movs	r2, #16
 80022e8:	fa92 f2a2 	rbit	r2, r2
 80022ec:	fab2 f282 	clz	r2, r2
 80022f0:	40d3      	lsrs	r3, r2
 80022f2:	4a03      	ldr	r2, [pc, #12]	; (8002300 <HAL_RCC_GetPCLK1Freq+0x28>)
 80022f4:	5cd3      	ldrb	r3, [r2, r3]
 80022f6:	40d8      	lsrs	r0, r3
 80022f8:	bd08      	pop	{r3, pc}
 80022fa:	bf00      	nop
 80022fc:	58024400 	.word	0x58024400
 8002300:	08007b94 	.word	0x08007b94

08002304 <HAL_RCC_GetPCLK2Freq>:
 8002304:	b508      	push	{r3, lr}
 8002306:	f7ff ffcd 	bl	80022a4 <HAL_RCC_GetHCLKFreq>
 800230a:	4b07      	ldr	r3, [pc, #28]	; (8002328 <HAL_RCC_GetPCLK2Freq+0x24>)
 800230c:	69db      	ldr	r3, [r3, #28]
 800230e:	f403 63e0 	and.w	r3, r3, #1792	; 0x700
 8002312:	f44f 7280 	mov.w	r2, #256	; 0x100
 8002316:	fa92 f2a2 	rbit	r2, r2
 800231a:	fab2 f282 	clz	r2, r2
 800231e:	40d3      	lsrs	r3, r2
 8002320:	4a02      	ldr	r2, [pc, #8]	; (800232c <HAL_RCC_GetPCLK2Freq+0x28>)
 8002322:	5cd3      	ldrb	r3, [r2, r3]
 8002324:	40d8      	lsrs	r0, r3
 8002326:	bd08      	pop	{r3, pc}
 8002328:	58024400 	.word	0x58024400
 800232c:	08007b94 	.word	0x08007b94

08002330 <RCCEx_PLL2_Config>:
 8002330:	4b38      	ldr	r3, [pc, #224]	; (8002414 <RCCEx_PLL2_Config+0xe4>)
 8002332:	6a9b      	ldr	r3, [r3, #40]	; 0x28
 8002334:	f003 0303 	and.w	r3, r3, #3
 8002338:	2b03      	cmp	r3, #3
 800233a:	d069      	beq.n	8002410 <RCCEx_PLL2_Config+0xe0>
 800233c:	b570      	push	{r4, r5, r6, lr}
 800233e:	460e      	mov	r6, r1
 8002340:	4605      	mov	r5, r0
 8002342:	4a34      	ldr	r2, [pc, #208]	; (8002414 <RCCEx_PLL2_Config+0xe4>)
 8002344:	6813      	ldr	r3, [r2, #0]
 8002346:	f023 6380 	bic.w	r3, r3, #67108864	; 0x4000000
 800234a:	6013      	str	r3, [r2, #0]
 800234c:	f7fe f986 	bl	800065c <HAL_GetTick>
 8002350:	4604      	mov	r4, r0
 8002352:	4b30      	ldr	r3, [pc, #192]	; (8002414 <RCCEx_PLL2_Config+0xe4>)
 8002354:	681b      	ldr	r3, [r3, #0]
 8002356:	f013 6f00 	tst.w	r3, #134217728	; 0x8000000
 800235a:	d006      	beq.n	800236a <RCCEx_PLL2_Config+0x3a>
 800235c:	f7fe f97e 	bl	800065c <HAL_GetTick>
 8002360:	1b00      	subs	r0, r0, r4
 8002362:	2802      	cmp	r0, #2
 8002364:	d9f5      	bls.n	8002352 <RCCEx_PLL2_Config+0x22>
 8002366:	2003      	movs	r0, #3
 8002368:	bd70      	pop	{r4, r5, r6, pc}
 800236a:	4a2a      	ldr	r2, [pc, #168]	; (8002414 <RCCEx_PLL2_Config+0xe4>)
 800236c:	6a93      	ldr	r3, [r2, #40]	; 0x28
 800236e:	f423 337c 	bic.w	r3, r3, #258048	; 0x3f000
 8002372:	6829      	ldr	r1, [r5, #0]
 8002374:	ea43 3301 	orr.w	r3, r3, r1, lsl #12
 8002378:	6293      	str	r3, [r2, #40]	; 0x28
 800237a:	686b      	ldr	r3, [r5, #4]
 800237c:	3b01      	subs	r3, #1
 800237e:	f3c3 0308 	ubfx	r3, r3, #0, #9
 8002382:	68a9      	ldr	r1, [r5, #8]
 8002384:	3901      	subs	r1, #1
 8002386:	0249      	lsls	r1, r1, #9
 8002388:	b289      	uxth	r1, r1
 800238a:	430b      	orrs	r3, r1
 800238c:	68e9      	ldr	r1, [r5, #12]
 800238e:	3901      	subs	r1, #1
 8002390:	0409      	lsls	r1, r1, #16
 8002392:	f401 01fe 	and.w	r1, r1, #8323072	; 0x7f0000
 8002396:	430b      	orrs	r3, r1
 8002398:	6929      	ldr	r1, [r5, #16]
 800239a:	3901      	subs	r1, #1
 800239c:	0609      	lsls	r1, r1, #24
 800239e:	f001 41fe 	and.w	r1, r1, #2130706432	; 0x7f000000
 80023a2:	430b      	orrs	r3, r1
 80023a4:	6393      	str	r3, [r2, #56]	; 0x38
 80023a6:	6ad3      	ldr	r3, [r2, #44]	; 0x2c
 80023a8:	f023 03c0 	bic.w	r3, r3, #192	; 0xc0
 80023ac:	6969      	ldr	r1, [r5, #20]
 80023ae:	430b      	orrs	r3, r1
 80023b0:	62d3      	str	r3, [r2, #44]	; 0x2c
 80023b2:	6ad3      	ldr	r3, [r2, #44]	; 0x2c
 80023b4:	f023 0320 	bic.w	r3, r3, #32
 80023b8:	69a9      	ldr	r1, [r5, #24]
 80023ba:	430b      	orrs	r3, r1
 80023bc:	62d3      	str	r3, [r2, #44]	; 0x2c
 80023be:	b9be      	cbnz	r6, 80023f0 <RCCEx_PLL2_Config+0xc0>
 80023c0:	6ad3      	ldr	r3, [r2, #44]	; 0x2c
 80023c2:	f443 2300 	orr.w	r3, r3, #524288	; 0x80000
 80023c6:	62d3      	str	r3, [r2, #44]	; 0x2c
 80023c8:	4a12      	ldr	r2, [pc, #72]	; (8002414 <RCCEx_PLL2_Config+0xe4>)
 80023ca:	6813      	ldr	r3, [r2, #0]
 80023cc:	f043 6380 	orr.w	r3, r3, #67108864	; 0x4000000
 80023d0:	6013      	str	r3, [r2, #0]
 80023d2:	f7fe f943 	bl	800065c <HAL_GetTick>
 80023d6:	4604      	mov	r4, r0
 80023d8:	4b0e      	ldr	r3, [pc, #56]	; (8002414 <RCCEx_PLL2_Config+0xe4>)
 80023da:	681b      	ldr	r3, [r3, #0]
 80023dc:	f013 6f00 	tst.w	r3, #134217728	; 0x8000000
 80023e0:	d114      	bne.n	800240c <RCCEx_PLL2_Config+0xdc>
 80023e2:	f7fe f93b 	bl	800065c <HAL_GetTick>
 80023e6:	1b00      	subs	r0, r0, r4
 80023e8:	2802      	cmp	r0, #2
 80023ea:	d9f5      	bls.n	80023d8 <RCCEx_PLL2_Config+0xa8>
 80023ec:	2003      	movs	r0, #3
 80023ee:	bd70      	pop	{r4, r5, r6, pc}
 80023f0:	2e01      	cmp	r6, #1
 80023f2:	d005      	beq.n	8002400 <RCCEx_PLL2_Config+0xd0>
 80023f4:	4a07      	ldr	r2, [pc, #28]	; (8002414 <RCCEx_PLL2_Config+0xe4>)
 80023f6:	6ad3      	ldr	r3, [r2, #44]	; 0x2c
 80023f8:	f443 1300 	orr.w	r3, r3, #2097152	; 0x200000
 80023fc:	62d3      	str	r3, [r2, #44]	; 0x2c
 80023fe:	e7e3      	b.n	80023c8 <RCCEx_PLL2_Config+0x98>
 8002400:	4a04      	ldr	r2, [pc, #16]	; (8002414 <RCCEx_PLL2_Config+0xe4>)
 8002402:	6ad3      	ldr	r3, [r2, #44]	; 0x2c
 8002404:	f443 1380 	orr.w	r3, r3, #1048576	; 0x100000
 8002408:	62d3      	str	r3, [r2, #44]	; 0x2c
 800240a:	e7dd      	b.n	80023c8 <RCCEx_PLL2_Config+0x98>
 800240c:	2000      	movs	r0, #0
 800240e:	bd70      	pop	{r4, r5, r6, pc}
 8002410:	2001      	movs	r0, #1
 8002412:	4770      	bx	lr
 8002414:	58024400 	.word	0x58024400

08002418 <RCCEx_PLL3_Config>:
 8002418:	4b38      	ldr	r3, [pc, #224]	; (80024fc <RCCEx_PLL3_Config+0xe4>)
 800241a:	6a9b      	ldr	r3, [r3, #40]	; 0x28
 800241c:	f003 0303 	and.w	r3, r3, #3
 8002420:	2b03      	cmp	r3, #3
 8002422:	d069      	beq.n	80024f8 <RCCEx_PLL3_Config+0xe0>
 8002424:	b570      	push	{r4, r5, r6, lr}
 8002426:	460e      	mov	r6, r1
 8002428:	4605      	mov	r5, r0
 800242a:	4a34      	ldr	r2, [pc, #208]	; (80024fc <RCCEx_PLL3_Config+0xe4>)
 800242c:	6813      	ldr	r3, [r2, #0]
 800242e:	f023 5380 	bic.w	r3, r3, #268435456	; 0x10000000
 8002432:	6013      	str	r3, [r2, #0]
 8002434:	f7fe f912 	bl	800065c <HAL_GetTick>
 8002438:	4604      	mov	r4, r0
 800243a:	4b30      	ldr	r3, [pc, #192]	; (80024fc <RCCEx_PLL3_Config+0xe4>)
 800243c:	681b      	ldr	r3, [r3, #0]
 800243e:	f013 5f00 	tst.w	r3, #536870912	; 0x20000000
 8002442:	d006      	beq.n	8002452 <RCCEx_PLL3_Config+0x3a>
 8002444:	f7fe f90a 	bl	800065c <HAL_GetTick>
 8002448:	1b00      	subs	r0, r0, r4
 800244a:	2802      	cmp	r0, #2
 800244c:	d9f5      	bls.n	800243a <RCCEx_PLL3_Config+0x22>
 800244e:	2003      	movs	r0, #3
 8002450:	bd70      	pop	{r4, r5, r6, pc}
 8002452:	4a2a      	ldr	r2, [pc, #168]	; (80024fc <RCCEx_PLL3_Config+0xe4>)
 8002454:	6a93      	ldr	r3, [r2, #40]	; 0x28
 8002456:	f023 737c 	bic.w	r3, r3, #66060288	; 0x3f00000
 800245a:	6829      	ldr	r1, [r5, #0]
 800245c:	ea43 5301 	orr.w	r3, r3, r1, lsl #20
 8002460:	6293      	str	r3, [r2, #40]	; 0x28
 8002462:	686b      	ldr	r3, [r5, #4]
 8002464:	3b01      	subs	r3, #1
 8002466:	f3c3 0308 	ubfx	r3, r3, #0, #9
 800246a:	68a9      	ldr	r1, [r5, #8]
 800246c:	3901      	subs	r1, #1
 800246e:	0249      	lsls	r1, r1, #9
 8002470:	b289      	uxth	r1, r1
 8002472:	430b      	orrs	r3, r1
 8002474:	68e9      	ldr	r1, [r5, #12]
 8002476:	3901      	subs	r1, #1
 8002478:	0409      	lsls	r1, r1, #16
 800247a:	f401 01fe 	and.w	r1, r1, #8323072	; 0x7f0000
 800247e:	430b      	orrs	r3, r1
 8002480:	6929      	ldr	r1, [r5, #16]
 8002482:	3901      	subs	r1, #1
 8002484:	0609      	lsls	r1, r1, #24
 8002486:	f001 41fe 	and.w	r1, r1, #2130706432	; 0x7f000000
 800248a:	430b      	orrs	r3, r1
 800248c:	6413      	str	r3, [r2, #64]	; 0x40
 800248e:	6ad3      	ldr	r3, [r2, #44]	; 0x2c
 8002490:	f423 6340 	bic.w	r3, r3, #3072	; 0xc00
 8002494:	6969      	ldr	r1, [r5, #20]
 8002496:	430b      	orrs	r3, r1
 8002498:	62d3      	str	r3, [r2, #44]	; 0x2c
 800249a:	6ad3      	ldr	r3, [r2, #44]	; 0x2c
 800249c:	f423 7300 	bic.w	r3, r3, #512	; 0x200
 80024a0:	69a9      	ldr	r1, [r5, #24]
 80024a2:	430b      	orrs	r3, r1
 80024a4:	62d3      	str	r3, [r2, #44]	; 0x2c
 80024a6:	b9be      	cbnz	r6, 80024d8 <RCCEx_PLL3_Config+0xc0>
 80024a8:	6ad3      	ldr	r3, [r2, #44]	; 0x2c
 80024aa:	f443 0380 	orr.w	r3, r3, #4194304	; 0x400000
 80024ae:	62d3      	str	r3, [r2, #44]	; 0x2c
 80024b0:	4a12      	ldr	r2, [pc, #72]	; (80024fc <RCCEx_PLL3_Config+0xe4>)
 80024b2:	6813      	ldr	r3, [r2, #0]
 80024b4:	f043 5380 	orr.w	r3, r3, #268435456	; 0x10000000
 80024b8:	6013      	str	r3, [r2, #0]
 80024ba:	f7fe f8cf 	bl	800065c <HAL_GetTick>
 80024be:	4604      	mov	r4, r0
 80024c0:	4b0e      	ldr	r3, [pc, #56]	; (80024fc <RCCEx_PLL3_Config+0xe4>)
 80024c2:	681b      	ldr	r3, [r3, #0]
 80024c4:	f013 5f00 	tst.w	r3, #536870912	; 0x20000000
 80024c8:	d114      	bne.n	80024f4 <RCCEx_PLL3_Config+0xdc>
 80024ca:	f7fe f8c7 	bl	800065c <HAL_GetTick>
 80024ce:	1b00      	subs	r0, r0, r4
 80024d0:	2802      	cmp	r0, #2
 80024d2:	d9f5      	bls.n	80024c0 <RCCEx_PLL3_Config+0xa8>
 80024d4:	2003      	movs	r0, #3
 80024d6:	bd70      	pop	{r4, r5, r6, pc}
 80024d8:	2e01      	cmp	r6, #1
 80024da:	d005      	beq.n	80024e8 <RCCEx_PLL3_Config+0xd0>
 80024dc:	4a07      	ldr	r2, [pc, #28]	; (80024fc <RCCEx_PLL3_Config+0xe4>)
 80024de:	6ad3      	ldr	r3, [r2, #44]	; 0x2c
 80024e0:	f043 7380 	orr.w	r3, r3, #16777216	; 0x1000000
 80024e4:	62d3      	str	r3, [r2, #44]	; 0x2c
 80024e6:	e7e3      	b.n	80024b0 <RCCEx_PLL3_Config+0x98>
 80024e8:	4a04      	ldr	r2, [pc, #16]	; (80024fc <RCCEx_PLL3_Config+0xe4>)
 80024ea:	6ad3      	ldr	r3, [r2, #44]	; 0x2c
 80024ec:	f443 0300 	orr.w	r3, r3, #8388608	; 0x800000
 80024f0:	62d3      	str	r3, [r2, #44]	; 0x2c
 80024f2:	e7dd      	b.n	80024b0 <RCCEx_PLL3_Config+0x98>
 80024f4:	2000      	movs	r0, #0
 80024f6:	bd70      	pop	{r4, r5, r6, pc}
 80024f8:	2001      	movs	r0, #1
 80024fa:	4770      	bx	lr
 80024fc:	58024400 	.word	0x58024400

08002500 <HAL_RCCEx_PeriphCLKConfig>:
 8002500:	b5f8      	push	{r3, r4, r5, r6, r7, lr}
 8002502:	4604      	mov	r4, r0
 8002504:	6803      	ldr	r3, [r0, #0]
 8002506:	f013 6f00 	tst.w	r3, #134217728	; 0x8000000
 800250a:	d02b      	beq.n	8002564 <HAL_RCCEx_PeriphCLKConfig+0x64>
 800250c:	6e43      	ldr	r3, [r0, #100]	; 0x64
 800250e:	f5b3 1f80 	cmp.w	r3, #1048576	; 0x100000
 8002512:	d019      	beq.n	8002548 <HAL_RCCEx_PeriphCLKConfig+0x48>
 8002514:	d910      	bls.n	8002538 <HAL_RCCEx_PeriphCLKConfig+0x38>
 8002516:	f5b3 1f00 	cmp.w	r3, #2097152	; 0x200000
 800251a:	d01b      	beq.n	8002554 <HAL_RCCEx_PeriphCLKConfig+0x54>
 800251c:	f5b3 1f40 	cmp.w	r3, #3145728	; 0x300000
 8002520:	d11e      	bne.n	8002560 <HAL_RCCEx_PeriphCLKConfig+0x60>
 8002522:	2600      	movs	r6, #0
 8002524:	bb66      	cbnz	r6, 8002580 <HAL_RCCEx_PeriphCLKConfig+0x80>
 8002526:	4a93      	ldr	r2, [pc, #588]	; (8002774 <HAL_RCCEx_PeriphCLKConfig+0x274>)
 8002528:	6d13      	ldr	r3, [r2, #80]	; 0x50
 800252a:	f423 1340 	bic.w	r3, r3, #3145728	; 0x300000
 800252e:	6e61      	ldr	r1, [r4, #100]	; 0x64
 8002530:	430b      	orrs	r3, r1
 8002532:	6513      	str	r3, [r2, #80]	; 0x50
 8002534:	4635      	mov	r5, r6
 8002536:	e017      	b.n	8002568 <HAL_RCCEx_PeriphCLKConfig+0x68>
 8002538:	b993      	cbnz	r3, 8002560 <HAL_RCCEx_PeriphCLKConfig+0x60>
 800253a:	4a8e      	ldr	r2, [pc, #568]	; (8002774 <HAL_RCCEx_PeriphCLKConfig+0x274>)
 800253c:	6ad3      	ldr	r3, [r2, #44]	; 0x2c
 800253e:	f443 3300 	orr.w	r3, r3, #131072	; 0x20000
 8002542:	62d3      	str	r3, [r2, #44]	; 0x2c
 8002544:	2600      	movs	r6, #0
 8002546:	e7ed      	b.n	8002524 <HAL_RCCEx_PeriphCLKConfig+0x24>
 8002548:	2102      	movs	r1, #2
 800254a:	3004      	adds	r0, #4
 800254c:	f7ff fef0 	bl	8002330 <RCCEx_PLL2_Config>
 8002550:	4606      	mov	r6, r0
 8002552:	e7e7      	b.n	8002524 <HAL_RCCEx_PeriphCLKConfig+0x24>
 8002554:	2102      	movs	r1, #2
 8002556:	3024      	adds	r0, #36	; 0x24
 8002558:	f7ff ff5e 	bl	8002418 <RCCEx_PLL3_Config>
 800255c:	4606      	mov	r6, r0
 800255e:	e7e1      	b.n	8002524 <HAL_RCCEx_PeriphCLKConfig+0x24>
 8002560:	2601      	movs	r6, #1
 8002562:	e7df      	b.n	8002524 <HAL_RCCEx_PeriphCLKConfig+0x24>
 8002564:	2500      	movs	r5, #0
 8002566:	462e      	mov	r6, r5
 8002568:	6823      	ldr	r3, [r4, #0]
 800256a:	f413 7f80 	tst.w	r3, #256	; 0x100
 800256e:	d016      	beq.n	800259e <HAL_RCCEx_PeriphCLKConfig+0x9e>
 8002570:	6d63      	ldr	r3, [r4, #84]	; 0x54
 8002572:	2b04      	cmp	r3, #4
 8002574:	d831      	bhi.n	80025da <HAL_RCCEx_PeriphCLKConfig+0xda>
 8002576:	e8df f003 	tbb	[pc, r3]
 800257a:	2305      	.short	0x2305
 800257c:	0a29      	.short	0x0a29
 800257e:	0a          	.byte	0x0a
 800257f:	00          	.byte	0x00
 8002580:	4635      	mov	r5, r6
 8002582:	e7f1      	b.n	8002568 <HAL_RCCEx_PeriphCLKConfig+0x68>
 8002584:	4a7b      	ldr	r2, [pc, #492]	; (8002774 <HAL_RCCEx_PeriphCLKConfig+0x274>)
 8002586:	6ad3      	ldr	r3, [r2, #44]	; 0x2c
 8002588:	f443 3300 	orr.w	r3, r3, #131072	; 0x20000
 800258c:	62d3      	str	r3, [r2, #44]	; 0x2c
 800258e:	bb36      	cbnz	r6, 80025de <HAL_RCCEx_PeriphCLKConfig+0xde>
 8002590:	4a78      	ldr	r2, [pc, #480]	; (8002774 <HAL_RCCEx_PeriphCLKConfig+0x274>)
 8002592:	6d13      	ldr	r3, [r2, #80]	; 0x50
 8002594:	f023 0307 	bic.w	r3, r3, #7
 8002598:	6d61      	ldr	r1, [r4, #84]	; 0x54
 800259a:	430b      	orrs	r3, r1
 800259c:	6513      	str	r3, [r2, #80]	; 0x50
 800259e:	6823      	ldr	r3, [r4, #0]
 80025a0:	f413 7f00 	tst.w	r3, #512	; 0x200
 80025a4:	d032      	beq.n	800260c <HAL_RCCEx_PeriphCLKConfig+0x10c>
 80025a6:	6da3      	ldr	r3, [r4, #88]	; 0x58
 80025a8:	2b80      	cmp	r3, #128	; 0x80
 80025aa:	d043      	beq.n	8002634 <HAL_RCCEx_PeriphCLKConfig+0x134>
 80025ac:	d81a      	bhi.n	80025e4 <HAL_RCCEx_PeriphCLKConfig+0xe4>
 80025ae:	b303      	cbz	r3, 80025f2 <HAL_RCCEx_PeriphCLKConfig+0xf2>
 80025b0:	2b40      	cmp	r3, #64	; 0x40
 80025b2:	d11c      	bne.n	80025ee <HAL_RCCEx_PeriphCLKConfig+0xee>
 80025b4:	2100      	movs	r1, #0
 80025b6:	1d20      	adds	r0, r4, #4
 80025b8:	f7ff feba 	bl	8002330 <RCCEx_PLL2_Config>
 80025bc:	4606      	mov	r6, r0
 80025be:	e01d      	b.n	80025fc <HAL_RCCEx_PeriphCLKConfig+0xfc>
 80025c0:	2100      	movs	r1, #0
 80025c2:	1d20      	adds	r0, r4, #4
 80025c4:	f7ff feb4 	bl	8002330 <RCCEx_PLL2_Config>
 80025c8:	4606      	mov	r6, r0
 80025ca:	e7e0      	b.n	800258e <HAL_RCCEx_PeriphCLKConfig+0x8e>
 80025cc:	2100      	movs	r1, #0
 80025ce:	f104 0024 	add.w	r0, r4, #36	; 0x24
 80025d2:	f7ff ff21 	bl	8002418 <RCCEx_PLL3_Config>
 80025d6:	4606      	mov	r6, r0
 80025d8:	e7d9      	b.n	800258e <HAL_RCCEx_PeriphCLKConfig+0x8e>
 80025da:	2601      	movs	r6, #1
 80025dc:	e7d7      	b.n	800258e <HAL_RCCEx_PeriphCLKConfig+0x8e>
 80025de:	4335      	orrs	r5, r6
 80025e0:	b2ed      	uxtb	r5, r5
 80025e2:	e7dc      	b.n	800259e <HAL_RCCEx_PeriphCLKConfig+0x9e>
 80025e4:	2bc0      	cmp	r3, #192	; 0xc0
 80025e6:	d009      	beq.n	80025fc <HAL_RCCEx_PeriphCLKConfig+0xfc>
 80025e8:	f5b3 7f80 	cmp.w	r3, #256	; 0x100
 80025ec:	d006      	beq.n	80025fc <HAL_RCCEx_PeriphCLKConfig+0xfc>
 80025ee:	2601      	movs	r6, #1
 80025f0:	e004      	b.n	80025fc <HAL_RCCEx_PeriphCLKConfig+0xfc>
 80025f2:	4a60      	ldr	r2, [pc, #384]	; (8002774 <HAL_RCCEx_PeriphCLKConfig+0x274>)
 80025f4:	6ad3      	ldr	r3, [r2, #44]	; 0x2c
 80025f6:	f443 3300 	orr.w	r3, r3, #131072	; 0x20000
 80025fa:	62d3      	str	r3, [r2, #44]	; 0x2c
 80025fc:	bb0e      	cbnz	r6, 8002642 <HAL_RCCEx_PeriphCLKConfig+0x142>
 80025fe:	4a5d      	ldr	r2, [pc, #372]	; (8002774 <HAL_RCCEx_PeriphCLKConfig+0x274>)
 8002600:	6d13      	ldr	r3, [r2, #80]	; 0x50
 8002602:	f423 73e0 	bic.w	r3, r3, #448	; 0x1c0
 8002606:	6da1      	ldr	r1, [r4, #88]	; 0x58
 8002608:	430b      	orrs	r3, r1
 800260a:	6513      	str	r3, [r2, #80]	; 0x50
 800260c:	6823      	ldr	r3, [r4, #0]
 800260e:	f413 6f80 	tst.w	r3, #1024	; 0x400
 8002612:	d02f      	beq.n	8002674 <HAL_RCCEx_PeriphCLKConfig+0x174>
 8002614:	f8d4 30a4 	ldr.w	r3, [r4, #164]	; 0xa4
 8002618:	f5b3 0f80 	cmp.w	r3, #4194304	; 0x400000
 800261c:	d03e      	beq.n	800269c <HAL_RCCEx_PeriphCLKConfig+0x19c>
 800261e:	d813      	bhi.n	8002648 <HAL_RCCEx_PeriphCLKConfig+0x148>
 8002620:	b1d3      	cbz	r3, 8002658 <HAL_RCCEx_PeriphCLKConfig+0x158>
 8002622:	f5b3 1f00 	cmp.w	r3, #2097152	; 0x200000
 8002626:	d115      	bne.n	8002654 <HAL_RCCEx_PeriphCLKConfig+0x154>
 8002628:	2100      	movs	r1, #0
 800262a:	1d20      	adds	r0, r4, #4
 800262c:	f7ff fe80 	bl	8002330 <RCCEx_PLL2_Config>
 8002630:	4606      	mov	r6, r0
 8002632:	e016      	b.n	8002662 <HAL_RCCEx_PeriphCLKConfig+0x162>
 8002634:	2100      	movs	r1, #0
 8002636:	f104 0024 	add.w	r0, r4, #36	; 0x24
 800263a:	f7ff feed 	bl	8002418 <RCCEx_PLL3_Config>
 800263e:	4606      	mov	r6, r0
 8002640:	e7dc      	b.n	80025fc <HAL_RCCEx_PeriphCLKConfig+0xfc>
 8002642:	4335      	orrs	r5, r6
 8002644:	b2ed      	uxtb	r5, r5
 8002646:	e7e1      	b.n	800260c <HAL_RCCEx_PeriphCLKConfig+0x10c>
 8002648:	f5b3 0fc0 	cmp.w	r3, #6291456	; 0x600000
 800264c:	d009      	beq.n	8002662 <HAL_RCCEx_PeriphCLKConfig+0x162>
 800264e:	f5b3 0f00 	cmp.w	r3, #8388608	; 0x800000
 8002652:	d006      	beq.n	8002662 <HAL_RCCEx_PeriphCLKConfig+0x162>
 8002654:	2601      	movs	r6, #1
 8002656:	e004      	b.n	8002662 <HAL_RCCEx_PeriphCLKConfig+0x162>
 8002658:	4a46      	ldr	r2, [pc, #280]	; (8002774 <HAL_RCCEx_PeriphCLKConfig+0x274>)
 800265a:	6ad3      	ldr	r3, [r2, #44]	; 0x2c
 800265c:	f443 3300 	orr.w	r3, r3, #131072	; 0x20000
 8002660:	62d3      	str	r3, [r2, #44]	; 0x2c
 8002662:	bb16      	cbnz	r6, 80026aa <HAL_RCCEx_PeriphCLKConfig+0x1aa>
 8002664:	4a43      	ldr	r2, [pc, #268]	; (8002774 <HAL_RCCEx_PeriphCLKConfig+0x274>)
 8002666:	6d93      	ldr	r3, [r2, #88]	; 0x58
 8002668:	f423 0360 	bic.w	r3, r3, #14680064	; 0xe00000
 800266c:	f8d4 10a4 	ldr.w	r1, [r4, #164]	; 0xa4
 8002670:	430b      	orrs	r3, r1
 8002672:	6593      	str	r3, [r2, #88]	; 0x58
 8002674:	6823      	ldr	r3, [r4, #0]
 8002676:	f413 6f00 	tst.w	r3, #2048	; 0x800
 800267a:	d02f      	beq.n	80026dc <HAL_RCCEx_PeriphCLKConfig+0x1dc>
 800267c:	f8d4 30a8 	ldr.w	r3, [r4, #168]	; 0xa8
 8002680:	f1b3 7f00 	cmp.w	r3, #33554432	; 0x2000000
 8002684:	d037      	beq.n	80026f6 <HAL_RCCEx_PeriphCLKConfig+0x1f6>
 8002686:	d813      	bhi.n	80026b0 <HAL_RCCEx_PeriphCLKConfig+0x1b0>
 8002688:	b1d3      	cbz	r3, 80026c0 <HAL_RCCEx_PeriphCLKConfig+0x1c0>
 800268a:	f1b3 7f80 	cmp.w	r3, #16777216	; 0x1000000
 800268e:	d115      	bne.n	80026bc <HAL_RCCEx_PeriphCLKConfig+0x1bc>
 8002690:	2100      	movs	r1, #0
 8002692:	1d20      	adds	r0, r4, #4
 8002694:	f7ff fe4c 	bl	8002330 <RCCEx_PLL2_Config>
 8002698:	4606      	mov	r6, r0
 800269a:	e016      	b.n	80026ca <HAL_RCCEx_PeriphCLKConfig+0x1ca>
 800269c:	2100      	movs	r1, #0
 800269e:	f104 0024 	add.w	r0, r4, #36	; 0x24
 80026a2:	f7ff feb9 	bl	8002418 <RCCEx_PLL3_Config>
 80026a6:	4606      	mov	r6, r0
 80026a8:	e7db      	b.n	8002662 <HAL_RCCEx_PeriphCLKConfig+0x162>
 80026aa:	4335      	orrs	r5, r6
 80026ac:	b2ed      	uxtb	r5, r5
 80026ae:	e7e1      	b.n	8002674 <HAL_RCCEx_PeriphCLKConfig+0x174>
 80026b0:	f1b3 7f40 	cmp.w	r3, #50331648	; 0x3000000
 80026b4:	d009      	beq.n	80026ca <HAL_RCCEx_PeriphCLKConfig+0x1ca>
 80026b6:	f1b3 6f80 	cmp.w	r3, #67108864	; 0x4000000
 80026ba:	d006      	beq.n	80026ca <HAL_RCCEx_PeriphCLKConfig+0x1ca>
 80026bc:	2601      	movs	r6, #1
 80026be:	e004      	b.n	80026ca <HAL_RCCEx_PeriphCLKConfig+0x1ca>
 80026c0:	4a2c      	ldr	r2, [pc, #176]	; (8002774 <HAL_RCCEx_PeriphCLKConfig+0x274>)
 80026c2:	6ad3      	ldr	r3, [r2, #44]	; 0x2c
 80026c4:	f443 3300 	orr.w	r3, r3, #131072	; 0x20000
 80026c8:	62d3      	str	r3, [r2, #44]	; 0x2c
 80026ca:	b9de      	cbnz	r6, 8002704 <HAL_RCCEx_PeriphCLKConfig+0x204>
 80026cc:	4a29      	ldr	r2, [pc, #164]	; (8002774 <HAL_RCCEx_PeriphCLKConfig+0x274>)
 80026ce:	6d93      	ldr	r3, [r2, #88]	; 0x58
 80026d0:	f023 63e0 	bic.w	r3, r3, #117440512	; 0x7000000
 80026d4:	f8d4 10a8 	ldr.w	r1, [r4, #168]	; 0xa8
 80026d8:	430b      	orrs	r3, r1
 80026da:	6593      	str	r3, [r2, #88]	; 0x58
 80026dc:	6823      	ldr	r3, [r4, #0]
 80026de:	f013 7f00 	tst.w	r3, #33554432	; 0x2000000
 80026e2:	d022      	beq.n	800272a <HAL_RCCEx_PeriphCLKConfig+0x22a>
 80026e4:	6ca3      	ldr	r3, [r4, #72]	; 0x48
 80026e6:	2b10      	cmp	r3, #16
 80026e8:	d012      	beq.n	8002710 <HAL_RCCEx_PeriphCLKConfig+0x210>
 80026ea:	d90e      	bls.n	800270a <HAL_RCCEx_PeriphCLKConfig+0x20a>
 80026ec:	2b20      	cmp	r3, #32
 80026ee:	d02f      	beq.n	8002750 <HAL_RCCEx_PeriphCLKConfig+0x250>
 80026f0:	2b30      	cmp	r3, #48	; 0x30
 80026f2:	d012      	beq.n	800271a <HAL_RCCEx_PeriphCLKConfig+0x21a>
 80026f4:	e00a      	b.n	800270c <HAL_RCCEx_PeriphCLKConfig+0x20c>
 80026f6:	2100      	movs	r1, #0
 80026f8:	f104 0024 	add.w	r0, r4, #36	; 0x24
 80026fc:	f7ff fe8c 	bl	8002418 <RCCEx_PLL3_Config>
 8002700:	4606      	mov	r6, r0
 8002702:	e7e2      	b.n	80026ca <HAL_RCCEx_PeriphCLKConfig+0x1ca>
 8002704:	4335      	orrs	r5, r6
 8002706:	b2ed      	uxtb	r5, r5
 8002708:	e7e8      	b.n	80026dc <HAL_RCCEx_PeriphCLKConfig+0x1dc>
 800270a:	b133      	cbz	r3, 800271a <HAL_RCCEx_PeriphCLKConfig+0x21a>
 800270c:	2601      	movs	r6, #1
 800270e:	e004      	b.n	800271a <HAL_RCCEx_PeriphCLKConfig+0x21a>
 8002710:	4a18      	ldr	r2, [pc, #96]	; (8002774 <HAL_RCCEx_PeriphCLKConfig+0x274>)
 8002712:	6ad3      	ldr	r3, [r2, #44]	; 0x2c
 8002714:	f443 3300 	orr.w	r3, r3, #131072	; 0x20000
 8002718:	62d3      	str	r3, [r2, #44]	; 0x2c
 800271a:	b9fe      	cbnz	r6, 800275c <HAL_RCCEx_PeriphCLKConfig+0x25c>
 800271c:	4a15      	ldr	r2, [pc, #84]	; (8002774 <HAL_RCCEx_PeriphCLKConfig+0x274>)
 800271e:	6cd3      	ldr	r3, [r2, #76]	; 0x4c
 8002720:	f023 0330 	bic.w	r3, r3, #48	; 0x30
 8002724:	6ca1      	ldr	r1, [r4, #72]	; 0x48
 8002726:	430b      	orrs	r3, r1
 8002728:	64d3      	str	r3, [r2, #76]	; 0x4c
 800272a:	6823      	ldr	r3, [r4, #0]
 800272c:	f413 5f80 	tst.w	r3, #4096	; 0x1000
 8002730:	d030      	beq.n	8002794 <HAL_RCCEx_PeriphCLKConfig+0x294>
 8002732:	6de3      	ldr	r3, [r4, #92]	; 0x5c
 8002734:	f5b3 5f00 	cmp.w	r3, #8192	; 0x2000
 8002738:	d073      	beq.n	8002822 <HAL_RCCEx_PeriphCLKConfig+0x322>
 800273a:	d812      	bhi.n	8002762 <HAL_RCCEx_PeriphCLKConfig+0x262>
 800273c:	b1e3      	cbz	r3, 8002778 <HAL_RCCEx_PeriphCLKConfig+0x278>
 800273e:	f5b3 5f80 	cmp.w	r3, #4096	; 0x1000
 8002742:	d114      	bne.n	800276e <HAL_RCCEx_PeriphCLKConfig+0x26e>
 8002744:	2100      	movs	r1, #0
 8002746:	1d20      	adds	r0, r4, #4
 8002748:	f7ff fdf2 	bl	8002330 <RCCEx_PLL2_Config>
 800274c:	4606      	mov	r6, r0
 800274e:	e018      	b.n	8002782 <HAL_RCCEx_PeriphCLKConfig+0x282>
 8002750:	2102      	movs	r1, #2
 8002752:	1d20      	adds	r0, r4, #4
 8002754:	f7ff fdec 	bl	8002330 <RCCEx_PLL2_Config>
 8002758:	4606      	mov	r6, r0
 800275a:	e7de      	b.n	800271a <HAL_RCCEx_PeriphCLKConfig+0x21a>
 800275c:	4335      	orrs	r5, r6
 800275e:	b2ed      	uxtb	r5, r5
 8002760:	e7e3      	b.n	800272a <HAL_RCCEx_PeriphCLKConfig+0x22a>
 8002762:	f5b3 5f40 	cmp.w	r3, #12288	; 0x3000
 8002766:	d00c      	beq.n	8002782 <HAL_RCCEx_PeriphCLKConfig+0x282>
 8002768:	f5b3 4f80 	cmp.w	r3, #16384	; 0x4000
 800276c:	d009      	beq.n	8002782 <HAL_RCCEx_PeriphCLKConfig+0x282>
 800276e:	2601      	movs	r6, #1
 8002770:	e007      	b.n	8002782 <HAL_RCCEx_PeriphCLKConfig+0x282>
 8002772:	bf00      	nop
 8002774:	58024400 	.word	0x58024400
 8002778:	4a95      	ldr	r2, [pc, #596]	; (80029d0 <HAL_RCCEx_PeriphCLKConfig+0x4d0>)
 800277a:	6ad3      	ldr	r3, [r2, #44]	; 0x2c
 800277c:	f443 3300 	orr.w	r3, r3, #131072	; 0x20000
 8002780:	62d3      	str	r3, [r2, #44]	; 0x2c
 8002782:	2e00      	cmp	r6, #0
 8002784:	d154      	bne.n	8002830 <HAL_RCCEx_PeriphCLKConfig+0x330>
 8002786:	4a92      	ldr	r2, [pc, #584]	; (80029d0 <HAL_RCCEx_PeriphCLKConfig+0x4d0>)
 8002788:	6d13      	ldr	r3, [r2, #80]	; 0x50
 800278a:	f423 43e0 	bic.w	r3, r3, #28672	; 0x7000
 800278e:	6de1      	ldr	r1, [r4, #92]	; 0x5c
 8002790:	430b      	orrs	r3, r1
 8002792:	6513      	str	r3, [r2, #80]	; 0x50
 8002794:	6823      	ldr	r3, [r4, #0]
 8002796:	f413 5f00 	tst.w	r3, #8192	; 0x2000
 800279a:	d016      	beq.n	80027ca <HAL_RCCEx_PeriphCLKConfig+0x2ca>
 800279c:	6e23      	ldr	r3, [r4, #96]	; 0x60
 800279e:	f5b3 3f00 	cmp.w	r3, #131072	; 0x20000
 80027a2:	d053      	beq.n	800284c <HAL_RCCEx_PeriphCLKConfig+0x34c>
 80027a4:	d847      	bhi.n	8002836 <HAL_RCCEx_PeriphCLKConfig+0x336>
 80027a6:	b13b      	cbz	r3, 80027b8 <HAL_RCCEx_PeriphCLKConfig+0x2b8>
 80027a8:	f5b3 3f80 	cmp.w	r3, #65536	; 0x10000
 80027ac:	d14c      	bne.n	8002848 <HAL_RCCEx_PeriphCLKConfig+0x348>
 80027ae:	2101      	movs	r1, #1
 80027b0:	1d20      	adds	r0, r4, #4
 80027b2:	f7ff fdbd 	bl	8002330 <RCCEx_PLL2_Config>
 80027b6:	4606      	mov	r6, r0
 80027b8:	2e00      	cmp	r6, #0
 80027ba:	d14e      	bne.n	800285a <HAL_RCCEx_PeriphCLKConfig+0x35a>
 80027bc:	4a84      	ldr	r2, [pc, #528]	; (80029d0 <HAL_RCCEx_PeriphCLKConfig+0x4d0>)
 80027be:	6d13      	ldr	r3, [r2, #80]	; 0x50
 80027c0:	f423 23e0 	bic.w	r3, r3, #458752	; 0x70000
 80027c4:	6e21      	ldr	r1, [r4, #96]	; 0x60
 80027c6:	430b      	orrs	r3, r1
 80027c8:	6513      	str	r3, [r2, #80]	; 0x50
 80027ca:	6823      	ldr	r3, [r4, #0]
 80027cc:	f413 4f80 	tst.w	r3, #16384	; 0x4000
 80027d0:	d018      	beq.n	8002804 <HAL_RCCEx_PeriphCLKConfig+0x304>
 80027d2:	f8d4 30ac 	ldr.w	r3, [r4, #172]	; 0xac
 80027d6:	f1b3 5f00 	cmp.w	r3, #536870912	; 0x20000000
 80027da:	d04c      	beq.n	8002876 <HAL_RCCEx_PeriphCLKConfig+0x376>
 80027dc:	d840      	bhi.n	8002860 <HAL_RCCEx_PeriphCLKConfig+0x360>
 80027de:	b13b      	cbz	r3, 80027f0 <HAL_RCCEx_PeriphCLKConfig+0x2f0>
 80027e0:	f1b3 5f80 	cmp.w	r3, #268435456	; 0x10000000
 80027e4:	d145      	bne.n	8002872 <HAL_RCCEx_PeriphCLKConfig+0x372>
 80027e6:	2101      	movs	r1, #1
 80027e8:	1d20      	adds	r0, r4, #4
 80027ea:	f7ff fda1 	bl	8002330 <RCCEx_PLL2_Config>
 80027ee:	4606      	mov	r6, r0
 80027f0:	2e00      	cmp	r6, #0
 80027f2:	d147      	bne.n	8002884 <HAL_RCCEx_PeriphCLKConfig+0x384>
 80027f4:	4a76      	ldr	r2, [pc, #472]	; (80029d0 <HAL_RCCEx_PeriphCLKConfig+0x4d0>)
 80027f6:	6d93      	ldr	r3, [r2, #88]	; 0x58
 80027f8:	f023 43e0 	bic.w	r3, r3, #1879048192	; 0x70000000
 80027fc:	f8d4 10ac 	ldr.w	r1, [r4, #172]	; 0xac
 8002800:	430b      	orrs	r3, r1
 8002802:	6593      	str	r3, [r2, #88]	; 0x58
 8002804:	6823      	ldr	r3, [r4, #0]
 8002806:	f413 4f00 	tst.w	r3, #32768	; 0x8000
 800280a:	d04b      	beq.n	80028a4 <HAL_RCCEx_PeriphCLKConfig+0x3a4>
 800280c:	6ee3      	ldr	r3, [r4, #108]	; 0x6c
 800280e:	f1b3 5f80 	cmp.w	r3, #268435456	; 0x10000000
 8002812:	d03a      	beq.n	800288a <HAL_RCCEx_PeriphCLKConfig+0x38a>
 8002814:	f1b3 5f00 	cmp.w	r3, #536870912	; 0x20000000
 8002818:	d04f      	beq.n	80028ba <HAL_RCCEx_PeriphCLKConfig+0x3ba>
 800281a:	2b00      	cmp	r3, #0
 800281c:	d03a      	beq.n	8002894 <HAL_RCCEx_PeriphCLKConfig+0x394>
 800281e:	2601      	movs	r6, #1
 8002820:	e038      	b.n	8002894 <HAL_RCCEx_PeriphCLKConfig+0x394>
 8002822:	2100      	movs	r1, #0
 8002824:	f104 0024 	add.w	r0, r4, #36	; 0x24
 8002828:	f7ff fdf6 	bl	8002418 <RCCEx_PLL3_Config>
 800282c:	4606      	mov	r6, r0
 800282e:	e7a8      	b.n	8002782 <HAL_RCCEx_PeriphCLKConfig+0x282>
 8002830:	4335      	orrs	r5, r6
 8002832:	b2ed      	uxtb	r5, r5
 8002834:	e7ae      	b.n	8002794 <HAL_RCCEx_PeriphCLKConfig+0x294>
 8002836:	f5b3 2f80 	cmp.w	r3, #262144	; 0x40000
 800283a:	d0bd      	beq.n	80027b8 <HAL_RCCEx_PeriphCLKConfig+0x2b8>
 800283c:	f5b3 2fa0 	cmp.w	r3, #327680	; 0x50000
 8002840:	d0ba      	beq.n	80027b8 <HAL_RCCEx_PeriphCLKConfig+0x2b8>
 8002842:	f5b3 3f40 	cmp.w	r3, #196608	; 0x30000
 8002846:	d0b7      	beq.n	80027b8 <HAL_RCCEx_PeriphCLKConfig+0x2b8>
 8002848:	2601      	movs	r6, #1
 800284a:	e7b5      	b.n	80027b8 <HAL_RCCEx_PeriphCLKConfig+0x2b8>
 800284c:	2101      	movs	r1, #1
 800284e:	f104 0024 	add.w	r0, r4, #36	; 0x24
 8002852:	f7ff fde1 	bl	8002418 <RCCEx_PLL3_Config>
 8002856:	4606      	mov	r6, r0
 8002858:	e7ae      	b.n	80027b8 <HAL_RCCEx_PeriphCLKConfig+0x2b8>
 800285a:	4335      	orrs	r5, r6
 800285c:	b2ed      	uxtb	r5, r5
 800285e:	e7b4      	b.n	80027ca <HAL_RCCEx_PeriphCLKConfig+0x2ca>
 8002860:	f1b3 4f80 	cmp.w	r3, #1073741824	; 0x40000000
 8002864:	d0c4      	beq.n	80027f0 <HAL_RCCEx_PeriphCLKConfig+0x2f0>
 8002866:	f1b3 4fa0 	cmp.w	r3, #1342177280	; 0x50000000
 800286a:	d0c1      	beq.n	80027f0 <HAL_RCCEx_PeriphCLKConfig+0x2f0>
 800286c:	f1b3 5f40 	cmp.w	r3, #805306368	; 0x30000000
 8002870:	d0be      	beq.n	80027f0 <HAL_RCCEx_PeriphCLKConfig+0x2f0>
 8002872:	2601      	movs	r6, #1
 8002874:	e7bc      	b.n	80027f0 <HAL_RCCEx_PeriphCLKConfig+0x2f0>
 8002876:	2101      	movs	r1, #1
 8002878:	f104 0024 	add.w	r0, r4, #36	; 0x24
 800287c:	f7ff fdcc 	bl	8002418 <RCCEx_PLL3_Config>
 8002880:	4606      	mov	r6, r0
 8002882:	e7b5      	b.n	80027f0 <HAL_RCCEx_PeriphCLKConfig+0x2f0>
 8002884:	4335      	orrs	r5, r6
 8002886:	b2ed      	uxtb	r5, r5
 8002888:	e7bc      	b.n	8002804 <HAL_RCCEx_PeriphCLKConfig+0x304>
 800288a:	4a51      	ldr	r2, [pc, #324]	; (80029d0 <HAL_RCCEx_PeriphCLKConfig+0x4d0>)
 800288c:	6ad3      	ldr	r3, [r2, #44]	; 0x2c
 800288e:	f443 3300 	orr.w	r3, r3, #131072	; 0x20000
 8002892:	62d3      	str	r3, [r2, #44]	; 0x2c
 8002894:	b9be      	cbnz	r6, 80028c6 <HAL_RCCEx_PeriphCLKConfig+0x3c6>
 8002896:	4a4e      	ldr	r2, [pc, #312]	; (80029d0 <HAL_RCCEx_PeriphCLKConfig+0x4d0>)
 8002898:	6d13      	ldr	r3, [r2, #80]	; 0x50
 800289a:	f023 5340 	bic.w	r3, r3, #805306368	; 0x30000000
 800289e:	6ee1      	ldr	r1, [r4, #108]	; 0x6c
 80028a0:	430b      	orrs	r3, r1
 80028a2:	6513      	str	r3, [r2, #80]	; 0x50
 80028a4:	6823      	ldr	r3, [r4, #0]
 80028a6:	f013 7f80 	tst.w	r3, #16777216	; 0x1000000
 80028aa:	d01c      	beq.n	80028e6 <HAL_RCCEx_PeriphCLKConfig+0x3e6>
 80028ac:	6c63      	ldr	r3, [r4, #68]	; 0x44
 80028ae:	2b03      	cmp	r3, #3
 80028b0:	d843      	bhi.n	800293a <HAL_RCCEx_PeriphCLKConfig+0x43a>
 80028b2:	e8df f003 	tbb	[pc, r3]
 80028b6:	0b10      	.short	0x0b10
 80028b8:	103c      	.short	0x103c
 80028ba:	2101      	movs	r1, #1
 80028bc:	1d20      	adds	r0, r4, #4
 80028be:	f7ff fd37 	bl	8002330 <RCCEx_PLL2_Config>
 80028c2:	4606      	mov	r6, r0
 80028c4:	e7e6      	b.n	8002894 <HAL_RCCEx_PeriphCLKConfig+0x394>
 80028c6:	4335      	orrs	r5, r6
 80028c8:	b2ed      	uxtb	r5, r5
 80028ca:	e7eb      	b.n	80028a4 <HAL_RCCEx_PeriphCLKConfig+0x3a4>
 80028cc:	4a40      	ldr	r2, [pc, #256]	; (80029d0 <HAL_RCCEx_PeriphCLKConfig+0x4d0>)
 80028ce:	6ad3      	ldr	r3, [r2, #44]	; 0x2c
 80028d0:	f443 3300 	orr.w	r3, r3, #131072	; 0x20000
 80028d4:	62d3      	str	r3, [r2, #44]	; 0x2c
 80028d6:	bb96      	cbnz	r6, 800293e <HAL_RCCEx_PeriphCLKConfig+0x43e>
 80028d8:	4a3d      	ldr	r2, [pc, #244]	; (80029d0 <HAL_RCCEx_PeriphCLKConfig+0x4d0>)
 80028da:	6cd3      	ldr	r3, [r2, #76]	; 0x4c
 80028dc:	f023 0303 	bic.w	r3, r3, #3
 80028e0:	6c61      	ldr	r1, [r4, #68]	; 0x44
 80028e2:	430b      	orrs	r3, r1
 80028e4:	64d3      	str	r3, [r2, #76]	; 0x4c
 80028e6:	6823      	ldr	r3, [r4, #0]
 80028e8:	f413 0f80 	tst.w	r3, #4194304	; 0x400000
 80028ec:	d12a      	bne.n	8002944 <HAL_RCCEx_PeriphCLKConfig+0x444>
 80028ee:	6823      	ldr	r3, [r4, #0]
 80028f0:	f013 0f01 	tst.w	r3, #1
 80028f4:	f000 809e 	beq.w	8002a34 <HAL_RCCEx_PeriphCLKConfig+0x534>
 80028f8:	6fa3      	ldr	r3, [r4, #120]	; 0x78
 80028fa:	2b28      	cmp	r3, #40	; 0x28
 80028fc:	f200 80ad 	bhi.w	8002a5a <HAL_RCCEx_PeriphCLKConfig+0x55a>
 8002900:	e8df f003 	tbb	[pc, r3]
 8002904:	ababab90 	.word	0xababab90
 8002908:	abababab 	.word	0xabababab
 800290c:	ababab8b 	.word	0xababab8b
 8002910:	abababab 	.word	0xabababab
 8002914:	abababa4 	.word	0xabababa4
 8002918:	abababab 	.word	0xabababab
 800291c:	ababab90 	.word	0xababab90
 8002920:	abababab 	.word	0xabababab
 8002924:	ababab90 	.word	0xababab90
 8002928:	abababab 	.word	0xabababab
 800292c:	90          	.byte	0x90
 800292d:	00          	.byte	0x00
 800292e:	2102      	movs	r1, #2
 8002930:	1d20      	adds	r0, r4, #4
 8002932:	f7ff fcfd 	bl	8002330 <RCCEx_PLL2_Config>
 8002936:	4606      	mov	r6, r0
 8002938:	e7cd      	b.n	80028d6 <HAL_RCCEx_PeriphCLKConfig+0x3d6>
 800293a:	2601      	movs	r6, #1
 800293c:	e7cb      	b.n	80028d6 <HAL_RCCEx_PeriphCLKConfig+0x3d6>
 800293e:	4335      	orrs	r5, r6
 8002940:	b2ed      	uxtb	r5, r5
 8002942:	e7d0      	b.n	80028e6 <HAL_RCCEx_PeriphCLKConfig+0x3e6>
 8002944:	4a23      	ldr	r2, [pc, #140]	; (80029d4 <HAL_RCCEx_PeriphCLKConfig+0x4d4>)
 8002946:	6813      	ldr	r3, [r2, #0]
 8002948:	f443 7380 	orr.w	r3, r3, #256	; 0x100
 800294c:	6013      	str	r3, [r2, #0]
 800294e:	f7fd fe85 	bl	800065c <HAL_GetTick>
 8002952:	4607      	mov	r7, r0
 8002954:	4b1f      	ldr	r3, [pc, #124]	; (80029d4 <HAL_RCCEx_PeriphCLKConfig+0x4d4>)
 8002956:	681b      	ldr	r3, [r3, #0]
 8002958:	f413 7f80 	tst.w	r3, #256	; 0x100
 800295c:	d105      	bne.n	800296a <HAL_RCCEx_PeriphCLKConfig+0x46a>
 800295e:	f7fd fe7d 	bl	800065c <HAL_GetTick>
 8002962:	1bc0      	subs	r0, r0, r7
 8002964:	2864      	cmp	r0, #100	; 0x64
 8002966:	d9f5      	bls.n	8002954 <HAL_RCCEx_PeriphCLKConfig+0x454>
 8002968:	2603      	movs	r6, #3
 800296a:	2e00      	cmp	r6, #0
 800296c:	d152      	bne.n	8002a14 <HAL_RCCEx_PeriphCLKConfig+0x514>
 800296e:	4b18      	ldr	r3, [pc, #96]	; (80029d0 <HAL_RCCEx_PeriphCLKConfig+0x4d0>)
 8002970:	6f1b      	ldr	r3, [r3, #112]	; 0x70
 8002972:	f8d4 20b0 	ldr.w	r2, [r4, #176]	; 0xb0
 8002976:	4053      	eors	r3, r2
 8002978:	f413 7f40 	tst.w	r3, #768	; 0x300
 800297c:	d00c      	beq.n	8002998 <HAL_RCCEx_PeriphCLKConfig+0x498>
 800297e:	4b14      	ldr	r3, [pc, #80]	; (80029d0 <HAL_RCCEx_PeriphCLKConfig+0x4d0>)
 8002980:	6f1a      	ldr	r2, [r3, #112]	; 0x70
 8002982:	f422 7240 	bic.w	r2, r2, #768	; 0x300
 8002986:	6f19      	ldr	r1, [r3, #112]	; 0x70
 8002988:	f441 3180 	orr.w	r1, r1, #65536	; 0x10000
 800298c:	6719      	str	r1, [r3, #112]	; 0x70
 800298e:	6f19      	ldr	r1, [r3, #112]	; 0x70
 8002990:	f421 3180 	bic.w	r1, r1, #65536	; 0x10000
 8002994:	6719      	str	r1, [r3, #112]	; 0x70
 8002996:	671a      	str	r2, [r3, #112]	; 0x70
 8002998:	f8d4 30b0 	ldr.w	r3, [r4, #176]	; 0xb0
 800299c:	f5b3 7f80 	cmp.w	r3, #256	; 0x100
 80029a0:	d01a      	beq.n	80029d8 <HAL_RCCEx_PeriphCLKConfig+0x4d8>
 80029a2:	2e00      	cmp	r6, #0
 80029a4:	d133      	bne.n	8002a0e <HAL_RCCEx_PeriphCLKConfig+0x50e>
 80029a6:	f8d4 30b0 	ldr.w	r3, [r4, #176]	; 0xb0
 80029aa:	f403 7240 	and.w	r2, r3, #768	; 0x300
 80029ae:	f5b2 7f40 	cmp.w	r2, #768	; 0x300
 80029b2:	d022      	beq.n	80029fa <HAL_RCCEx_PeriphCLKConfig+0x4fa>
 80029b4:	4a06      	ldr	r2, [pc, #24]	; (80029d0 <HAL_RCCEx_PeriphCLKConfig+0x4d0>)
 80029b6:	6913      	ldr	r3, [r2, #16]
 80029b8:	f423 537c 	bic.w	r3, r3, #16128	; 0x3f00
 80029bc:	6113      	str	r3, [r2, #16]
 80029be:	4904      	ldr	r1, [pc, #16]	; (80029d0 <HAL_RCCEx_PeriphCLKConfig+0x4d0>)
 80029c0:	6f0b      	ldr	r3, [r1, #112]	; 0x70
 80029c2:	f8d4 20b0 	ldr.w	r2, [r4, #176]	; 0xb0
 80029c6:	f3c2 020b 	ubfx	r2, r2, #0, #12
 80029ca:	4313      	orrs	r3, r2
 80029cc:	670b      	str	r3, [r1, #112]	; 0x70
 80029ce:	e78e      	b.n	80028ee <HAL_RCCEx_PeriphCLKConfig+0x3ee>
 80029d0:	58024400 	.word	0x58024400
 80029d4:	58024800 	.word	0x58024800
 80029d8:	f7fd fe40 	bl	800065c <HAL_GetTick>
 80029dc:	4607      	mov	r7, r0
 80029de:	4bb7      	ldr	r3, [pc, #732]	; (8002cbc <HAL_RCCEx_PeriphCLKConfig+0x7bc>)
 80029e0:	6f1b      	ldr	r3, [r3, #112]	; 0x70
 80029e2:	f013 0f02 	tst.w	r3, #2
 80029e6:	d1dc      	bne.n	80029a2 <HAL_RCCEx_PeriphCLKConfig+0x4a2>
 80029e8:	f7fd fe38 	bl	800065c <HAL_GetTick>
 80029ec:	1bc0      	subs	r0, r0, r7
 80029ee:	f241 3388 	movw	r3, #5000	; 0x1388
 80029f2:	4298      	cmp	r0, r3
 80029f4:	d9f3      	bls.n	80029de <HAL_RCCEx_PeriphCLKConfig+0x4de>
 80029f6:	2603      	movs	r6, #3
 80029f8:	e7d3      	b.n	80029a2 <HAL_RCCEx_PeriphCLKConfig+0x4a2>
 80029fa:	48b0      	ldr	r0, [pc, #704]	; (8002cbc <HAL_RCCEx_PeriphCLKConfig+0x7bc>)
 80029fc:	6902      	ldr	r2, [r0, #16]
 80029fe:	f422 527c 	bic.w	r2, r2, #16128	; 0x3f00
 8002a02:	49af      	ldr	r1, [pc, #700]	; (8002cc0 <HAL_RCCEx_PeriphCLKConfig+0x7c0>)
 8002a04:	ea01 1313 	and.w	r3, r1, r3, lsr #4
 8002a08:	4313      	orrs	r3, r2
 8002a0a:	6103      	str	r3, [r0, #16]
 8002a0c:	e7d7      	b.n	80029be <HAL_RCCEx_PeriphCLKConfig+0x4be>
 8002a0e:	4335      	orrs	r5, r6
 8002a10:	b2ed      	uxtb	r5, r5
 8002a12:	e76c      	b.n	80028ee <HAL_RCCEx_PeriphCLKConfig+0x3ee>
 8002a14:	4335      	orrs	r5, r6
 8002a16:	b2ed      	uxtb	r5, r5
 8002a18:	e769      	b.n	80028ee <HAL_RCCEx_PeriphCLKConfig+0x3ee>
 8002a1a:	2101      	movs	r1, #1
 8002a1c:	1d20      	adds	r0, r4, #4
 8002a1e:	f7ff fc87 	bl	8002330 <RCCEx_PLL2_Config>
 8002a22:	4606      	mov	r6, r0
 8002a24:	b9de      	cbnz	r6, 8002a5e <HAL_RCCEx_PeriphCLKConfig+0x55e>
 8002a26:	4aa5      	ldr	r2, [pc, #660]	; (8002cbc <HAL_RCCEx_PeriphCLKConfig+0x7bc>)
 8002a28:	6d53      	ldr	r3, [r2, #84]	; 0x54
 8002a2a:	f023 0338 	bic.w	r3, r3, #56	; 0x38
 8002a2e:	6fa1      	ldr	r1, [r4, #120]	; 0x78
 8002a30:	430b      	orrs	r3, r1
 8002a32:	6553      	str	r3, [r2, #84]	; 0x54
 8002a34:	6823      	ldr	r3, [r4, #0]
 8002a36:	f013 0f02 	tst.w	r3, #2
 8002a3a:	d020      	beq.n	8002a7e <HAL_RCCEx_PeriphCLKConfig+0x57e>
 8002a3c:	6f63      	ldr	r3, [r4, #116]	; 0x74
 8002a3e:	2b05      	cmp	r3, #5
 8002a40:	d832      	bhi.n	8002aa8 <HAL_RCCEx_PeriphCLKConfig+0x5a8>
 8002a42:	e8df f003 	tbb	[pc, r3]
 8002a46:	0f14      	.short	0x0f14
 8002a48:	1414142a 	.word	0x1414142a
 8002a4c:	2101      	movs	r1, #1
 8002a4e:	f104 0024 	add.w	r0, r4, #36	; 0x24
 8002a52:	f7ff fce1 	bl	8002418 <RCCEx_PLL3_Config>
 8002a56:	4606      	mov	r6, r0
 8002a58:	e7e4      	b.n	8002a24 <HAL_RCCEx_PeriphCLKConfig+0x524>
 8002a5a:	2601      	movs	r6, #1
 8002a5c:	e7e2      	b.n	8002a24 <HAL_RCCEx_PeriphCLKConfig+0x524>
 8002a5e:	4335      	orrs	r5, r6
 8002a60:	b2ed      	uxtb	r5, r5
 8002a62:	e7e7      	b.n	8002a34 <HAL_RCCEx_PeriphCLKConfig+0x534>
 8002a64:	2101      	movs	r1, #1
 8002a66:	1d20      	adds	r0, r4, #4
 8002a68:	f7ff fc62 	bl	8002330 <RCCEx_PLL2_Config>
 8002a6c:	4606      	mov	r6, r0
 8002a6e:	b9ee      	cbnz	r6, 8002aac <HAL_RCCEx_PeriphCLKConfig+0x5ac>
 8002a70:	4a92      	ldr	r2, [pc, #584]	; (8002cbc <HAL_RCCEx_PeriphCLKConfig+0x7bc>)
 8002a72:	6d53      	ldr	r3, [r2, #84]	; 0x54
 8002a74:	f023 0307 	bic.w	r3, r3, #7
 8002a78:	6f61      	ldr	r1, [r4, #116]	; 0x74
 8002a7a:	430b      	orrs	r3, r1
 8002a7c:	6553      	str	r3, [r2, #84]	; 0x54
 8002a7e:	6823      	ldr	r3, [r4, #0]
 8002a80:	f013 0f04 	tst.w	r3, #4
 8002a84:	d025      	beq.n	8002ad2 <HAL_RCCEx_PeriphCLKConfig+0x5d2>
 8002a86:	f8d4 3090 	ldr.w	r3, [r4, #144]	; 0x90
 8002a8a:	2b05      	cmp	r3, #5
 8002a8c:	f200 80bb 	bhi.w	8002c06 <HAL_RCCEx_PeriphCLKConfig+0x706>
 8002a90:	e8df f003 	tbb	[pc, r3]
 8002a94:	14b20f14 	.word	0x14b20f14
 8002a98:	1414      	.short	0x1414
 8002a9a:	2101      	movs	r1, #1
 8002a9c:	f104 0024 	add.w	r0, r4, #36	; 0x24
 8002aa0:	f7ff fcba 	bl	8002418 <RCCEx_PLL3_Config>
 8002aa4:	4606      	mov	r6, r0
 8002aa6:	e7e2      	b.n	8002a6e <HAL_RCCEx_PeriphCLKConfig+0x56e>
 8002aa8:	2601      	movs	r6, #1
 8002aaa:	e7e0      	b.n	8002a6e <HAL_RCCEx_PeriphCLKConfig+0x56e>
 8002aac:	4335      	orrs	r5, r6
 8002aae:	b2ed      	uxtb	r5, r5
 8002ab0:	e7e5      	b.n	8002a7e <HAL_RCCEx_PeriphCLKConfig+0x57e>
 8002ab2:	2101      	movs	r1, #1
 8002ab4:	1d20      	adds	r0, r4, #4
 8002ab6:	f7ff fc3b 	bl	8002330 <RCCEx_PLL2_Config>
 8002aba:	4606      	mov	r6, r0
 8002abc:	2e00      	cmp	r6, #0
 8002abe:	f040 80a4 	bne.w	8002c0a <HAL_RCCEx_PeriphCLKConfig+0x70a>
 8002ac2:	4a7e      	ldr	r2, [pc, #504]	; (8002cbc <HAL_RCCEx_PeriphCLKConfig+0x7bc>)
 8002ac4:	6d93      	ldr	r3, [r2, #88]	; 0x58
 8002ac6:	f023 0307 	bic.w	r3, r3, #7
 8002aca:	f8d4 1090 	ldr.w	r1, [r4, #144]	; 0x90
 8002ace:	430b      	orrs	r3, r1
 8002ad0:	6593      	str	r3, [r2, #88]	; 0x58
 8002ad2:	6823      	ldr	r3, [r4, #0]
 8002ad4:	f013 0f20 	tst.w	r3, #32
 8002ad8:	d01c      	beq.n	8002b14 <HAL_RCCEx_PeriphCLKConfig+0x614>
 8002ada:	f8d4 308c 	ldr.w	r3, [r4, #140]	; 0x8c
 8002ade:	f1b3 5f00 	cmp.w	r3, #536870912	; 0x20000000
 8002ae2:	f000 80a3 	beq.w	8002c2c <HAL_RCCEx_PeriphCLKConfig+0x72c>
 8002ae6:	f200 8093 	bhi.w	8002c10 <HAL_RCCEx_PeriphCLKConfig+0x710>
 8002aea:	b143      	cbz	r3, 8002afe <HAL_RCCEx_PeriphCLKConfig+0x5fe>
 8002aec:	f1b3 5f80 	cmp.w	r3, #268435456	; 0x10000000
 8002af0:	f040 809a 	bne.w	8002c28 <HAL_RCCEx_PeriphCLKConfig+0x728>
 8002af4:	2100      	movs	r1, #0
 8002af6:	1d20      	adds	r0, r4, #4
 8002af8:	f7ff fc1a 	bl	8002330 <RCCEx_PLL2_Config>
 8002afc:	4606      	mov	r6, r0
 8002afe:	2e00      	cmp	r6, #0
 8002b00:	f040 809b 	bne.w	8002c3a <HAL_RCCEx_PeriphCLKConfig+0x73a>
 8002b04:	4a6d      	ldr	r2, [pc, #436]	; (8002cbc <HAL_RCCEx_PeriphCLKConfig+0x7bc>)
 8002b06:	6d53      	ldr	r3, [r2, #84]	; 0x54
 8002b08:	f023 43e0 	bic.w	r3, r3, #1879048192	; 0x70000000
 8002b0c:	f8d4 108c 	ldr.w	r1, [r4, #140]	; 0x8c
 8002b10:	430b      	orrs	r3, r1
 8002b12:	6553      	str	r3, [r2, #84]	; 0x54
 8002b14:	6823      	ldr	r3, [r4, #0]
 8002b16:	f013 0f40 	tst.w	r3, #64	; 0x40
 8002b1a:	d01c      	beq.n	8002b56 <HAL_RCCEx_PeriphCLKConfig+0x656>
 8002b1c:	f8d4 3098 	ldr.w	r3, [r4, #152]	; 0x98
 8002b20:	f5b3 6f00 	cmp.w	r3, #2048	; 0x800
 8002b24:	f000 809a 	beq.w	8002c5c <HAL_RCCEx_PeriphCLKConfig+0x75c>
 8002b28:	f200 808a 	bhi.w	8002c40 <HAL_RCCEx_PeriphCLKConfig+0x740>
 8002b2c:	b143      	cbz	r3, 8002b40 <HAL_RCCEx_PeriphCLKConfig+0x640>
 8002b2e:	f5b3 6f80 	cmp.w	r3, #1024	; 0x400
 8002b32:	f040 8091 	bne.w	8002c58 <HAL_RCCEx_PeriphCLKConfig+0x758>
 8002b36:	2100      	movs	r1, #0
 8002b38:	1d20      	adds	r0, r4, #4
 8002b3a:	f7ff fbf9 	bl	8002330 <RCCEx_PLL2_Config>
 8002b3e:	4606      	mov	r6, r0
 8002b40:	2e00      	cmp	r6, #0
 8002b42:	f040 8092 	bne.w	8002c6a <HAL_RCCEx_PeriphCLKConfig+0x76a>
 8002b46:	4a5d      	ldr	r2, [pc, #372]	; (8002cbc <HAL_RCCEx_PeriphCLKConfig+0x7bc>)
 8002b48:	6d93      	ldr	r3, [r2, #88]	; 0x58
 8002b4a:	f423 53e0 	bic.w	r3, r3, #7168	; 0x1c00
 8002b4e:	f8d4 1098 	ldr.w	r1, [r4, #152]	; 0x98
 8002b52:	430b      	orrs	r3, r1
 8002b54:	6593      	str	r3, [r2, #88]	; 0x58
 8002b56:	6823      	ldr	r3, [r4, #0]
 8002b58:	f013 0f80 	tst.w	r3, #128	; 0x80
 8002b5c:	d01c      	beq.n	8002b98 <HAL_RCCEx_PeriphCLKConfig+0x698>
 8002b5e:	f8d4 309c 	ldr.w	r3, [r4, #156]	; 0x9c
 8002b62:	f5b3 4f80 	cmp.w	r3, #16384	; 0x4000
 8002b66:	f000 808f 	beq.w	8002c88 <HAL_RCCEx_PeriphCLKConfig+0x788>
 8002b6a:	f200 8081 	bhi.w	8002c70 <HAL_RCCEx_PeriphCLKConfig+0x770>
 8002b6e:	b143      	cbz	r3, 8002b82 <HAL_RCCEx_PeriphCLKConfig+0x682>
 8002b70:	f5b3 5f00 	cmp.w	r3, #8192	; 0x2000
 8002b74:	f040 8086 	bne.w	8002c84 <HAL_RCCEx_PeriphCLKConfig+0x784>
 8002b78:	2100      	movs	r1, #0
 8002b7a:	1d20      	adds	r0, r4, #4
 8002b7c:	f7ff fbd8 	bl	8002330 <RCCEx_PLL2_Config>
 8002b80:	4606      	mov	r6, r0
 8002b82:	2e00      	cmp	r6, #0
 8002b84:	f040 8087 	bne.w	8002c96 <HAL_RCCEx_PeriphCLKConfig+0x796>
 8002b88:	4a4c      	ldr	r2, [pc, #304]	; (8002cbc <HAL_RCCEx_PeriphCLKConfig+0x7bc>)
 8002b8a:	6d93      	ldr	r3, [r2, #88]	; 0x58
 8002b8c:	f423 4360 	bic.w	r3, r3, #57344	; 0xe000
 8002b90:	f8d4 109c 	ldr.w	r1, [r4, #156]	; 0x9c
 8002b94:	430b      	orrs	r3, r1
 8002b96:	6593      	str	r3, [r2, #88]	; 0x58
 8002b98:	6823      	ldr	r3, [r4, #0]
 8002b9a:	f013 0f08 	tst.w	r3, #8
 8002b9e:	d00a      	beq.n	8002bb6 <HAL_RCCEx_PeriphCLKConfig+0x6b6>
 8002ba0:	f8d4 3080 	ldr.w	r3, [r4, #128]	; 0x80
 8002ba4:	f5b3 5f80 	cmp.w	r3, #4096	; 0x1000
 8002ba8:	d078      	beq.n	8002c9c <HAL_RCCEx_PeriphCLKConfig+0x79c>
 8002baa:	4944      	ldr	r1, [pc, #272]	; (8002cbc <HAL_RCCEx_PeriphCLKConfig+0x7bc>)
 8002bac:	6d4a      	ldr	r2, [r1, #84]	; 0x54
 8002bae:	f422 5240 	bic.w	r2, r2, #12288	; 0x3000
 8002bb2:	4313      	orrs	r3, r2
 8002bb4:	654b      	str	r3, [r1, #84]	; 0x54
 8002bb6:	6823      	ldr	r3, [r4, #0]
 8002bb8:	f013 0f10 	tst.w	r3, #16
 8002bbc:	d00a      	beq.n	8002bd4 <HAL_RCCEx_PeriphCLKConfig+0x6d4>
 8002bbe:	f8d4 3094 	ldr.w	r3, [r4, #148]	; 0x94
 8002bc2:	f5b3 7f80 	cmp.w	r3, #256	; 0x100
 8002bc6:	d071      	beq.n	8002cac <HAL_RCCEx_PeriphCLKConfig+0x7ac>
 8002bc8:	493c      	ldr	r1, [pc, #240]	; (8002cbc <HAL_RCCEx_PeriphCLKConfig+0x7bc>)
 8002bca:	6d8a      	ldr	r2, [r1, #88]	; 0x58
 8002bcc:	f422 7240 	bic.w	r2, r2, #768	; 0x300
 8002bd0:	4313      	orrs	r3, r2
 8002bd2:	658b      	str	r3, [r1, #88]	; 0x58
 8002bd4:	6823      	ldr	r3, [r4, #0]
 8002bd6:	f413 2f00 	tst.w	r3, #524288	; 0x80000
 8002bda:	f000 8081 	beq.w	8002ce0 <HAL_RCCEx_PeriphCLKConfig+0x7e0>
 8002bde:	f8d4 30a0 	ldr.w	r3, [r4, #160]	; 0xa0
 8002be2:	f5b3 3f80 	cmp.w	r3, #65536	; 0x10000
 8002be6:	f000 808c 	beq.w	8002d02 <HAL_RCCEx_PeriphCLKConfig+0x802>
 8002bea:	f5b3 3f00 	cmp.w	r3, #131072	; 0x20000
 8002bee:	d06e      	beq.n	8002cce <HAL_RCCEx_PeriphCLKConfig+0x7ce>
 8002bf0:	2b00      	cmp	r3, #0
 8002bf2:	d067      	beq.n	8002cc4 <HAL_RCCEx_PeriphCLKConfig+0x7c4>
 8002bf4:	2601      	movs	r6, #1
 8002bf6:	e06a      	b.n	8002cce <HAL_RCCEx_PeriphCLKConfig+0x7ce>
 8002bf8:	2101      	movs	r1, #1
 8002bfa:	f104 0024 	add.w	r0, r4, #36	; 0x24
 8002bfe:	f7ff fc0b 	bl	8002418 <RCCEx_PLL3_Config>
 8002c02:	4606      	mov	r6, r0
 8002c04:	e75a      	b.n	8002abc <HAL_RCCEx_PeriphCLKConfig+0x5bc>
 8002c06:	2601      	movs	r6, #1
 8002c08:	e758      	b.n	8002abc <HAL_RCCEx_PeriphCLKConfig+0x5bc>
 8002c0a:	4335      	orrs	r5, r6
 8002c0c:	b2ed      	uxtb	r5, r5
 8002c0e:	e760      	b.n	8002ad2 <HAL_RCCEx_PeriphCLKConfig+0x5d2>
 8002c10:	f1b3 4f80 	cmp.w	r3, #1073741824	; 0x40000000
 8002c14:	f43f af73 	beq.w	8002afe <HAL_RCCEx_PeriphCLKConfig+0x5fe>
 8002c18:	f1b3 4fa0 	cmp.w	r3, #1342177280	; 0x50000000
 8002c1c:	f43f af6f 	beq.w	8002afe <HAL_RCCEx_PeriphCLKConfig+0x5fe>
 8002c20:	f1b3 5f40 	cmp.w	r3, #805306368	; 0x30000000
 8002c24:	f43f af6b 	beq.w	8002afe <HAL_RCCEx_PeriphCLKConfig+0x5fe>
 8002c28:	2601      	movs	r6, #1
 8002c2a:	e768      	b.n	8002afe <HAL_RCCEx_PeriphCLKConfig+0x5fe>
 8002c2c:	2102      	movs	r1, #2
 8002c2e:	f104 0024 	add.w	r0, r4, #36	; 0x24
 8002c32:	f7ff fbf1 	bl	8002418 <RCCEx_PLL3_Config>
 8002c36:	4606      	mov	r6, r0
 8002c38:	e761      	b.n	8002afe <HAL_RCCEx_PeriphCLKConfig+0x5fe>
 8002c3a:	4335      	orrs	r5, r6
 8002c3c:	b2ed      	uxtb	r5, r5
 8002c3e:	e769      	b.n	8002b14 <HAL_RCCEx_PeriphCLKConfig+0x614>
 8002c40:	f5b3 5f80 	cmp.w	r3, #4096	; 0x1000
 8002c44:	f43f af7c 	beq.w	8002b40 <HAL_RCCEx_PeriphCLKConfig+0x640>
 8002c48:	f5b3 5fa0 	cmp.w	r3, #5120	; 0x1400
 8002c4c:	f43f af78 	beq.w	8002b40 <HAL_RCCEx_PeriphCLKConfig+0x640>
 8002c50:	f5b3 6f40 	cmp.w	r3, #3072	; 0xc00
 8002c54:	f43f af74 	beq.w	8002b40 <HAL_RCCEx_PeriphCLKConfig+0x640>
 8002c58:	2601      	movs	r6, #1
 8002c5a:	e771      	b.n	8002b40 <HAL_RCCEx_PeriphCLKConfig+0x640>
 8002c5c:	2102      	movs	r1, #2
 8002c5e:	f104 0024 	add.w	r0, r4, #36	; 0x24
 8002c62:	f7ff fbd9 	bl	8002418 <RCCEx_PLL3_Config>
 8002c66:	4606      	mov	r6, r0
 8002c68:	e76a      	b.n	8002b40 <HAL_RCCEx_PeriphCLKConfig+0x640>
 8002c6a:	4335      	orrs	r5, r6
 8002c6c:	b2ed      	uxtb	r5, r5
 8002c6e:	e772      	b.n	8002b56 <HAL_RCCEx_PeriphCLKConfig+0x656>
 8002c70:	f5b3 4f00 	cmp.w	r3, #32768	; 0x8000
 8002c74:	d085      	beq.n	8002b82 <HAL_RCCEx_PeriphCLKConfig+0x682>
 8002c76:	f5b3 4f20 	cmp.w	r3, #40960	; 0xa000
 8002c7a:	d082      	beq.n	8002b82 <HAL_RCCEx_PeriphCLKConfig+0x682>
 8002c7c:	f5b3 4fc0 	cmp.w	r3, #24576	; 0x6000
 8002c80:	f43f af7f 	beq.w	8002b82 <HAL_RCCEx_PeriphCLKConfig+0x682>
 8002c84:	2601      	movs	r6, #1
 8002c86:	e77c      	b.n	8002b82 <HAL_RCCEx_PeriphCLKConfig+0x682>
 8002c88:	2102      	movs	r1, #2
 8002c8a:	f104 0024 	add.w	r0, r4, #36	; 0x24
 8002c8e:	f7ff fbc3 	bl	8002418 <RCCEx_PLL3_Config>
 8002c92:	4606      	mov	r6, r0
 8002c94:	e775      	b.n	8002b82 <HAL_RCCEx_PeriphCLKConfig+0x682>
 8002c96:	4335      	orrs	r5, r6
 8002c98:	b2ed      	uxtb	r5, r5
 8002c9a:	e77d      	b.n	8002b98 <HAL_RCCEx_PeriphCLKConfig+0x698>
 8002c9c:	2102      	movs	r1, #2
 8002c9e:	f104 0024 	add.w	r0, r4, #36	; 0x24
 8002ca2:	f7ff fbb9 	bl	8002418 <RCCEx_PLL3_Config>
 8002ca6:	4305      	orrs	r5, r0
 8002ca8:	b2ed      	uxtb	r5, r5
 8002caa:	e784      	b.n	8002bb6 <HAL_RCCEx_PeriphCLKConfig+0x6b6>
 8002cac:	2102      	movs	r1, #2
 8002cae:	f104 0024 	add.w	r0, r4, #36	; 0x24
 8002cb2:	f7ff fbb1 	bl	8002418 <RCCEx_PLL3_Config>
 8002cb6:	4305      	orrs	r5, r0
 8002cb8:	b2ed      	uxtb	r5, r5
 8002cba:	e78b      	b.n	8002bd4 <HAL_RCCEx_PeriphCLKConfig+0x6d4>
 8002cbc:	58024400 	.word	0x58024400
 8002cc0:	00ffffcf 	.word	0x00ffffcf
 8002cc4:	2100      	movs	r1, #0
 8002cc6:	1d20      	adds	r0, r4, #4
 8002cc8:	f7ff fb32 	bl	8002330 <RCCEx_PLL2_Config>
 8002ccc:	4606      	mov	r6, r0
 8002cce:	b9fe      	cbnz	r6, 8002d10 <HAL_RCCEx_PeriphCLKConfig+0x810>
 8002cd0:	4a65      	ldr	r2, [pc, #404]	; (8002e68 <HAL_RCCEx_PeriphCLKConfig+0x968>)
 8002cd2:	6d93      	ldr	r3, [r2, #88]	; 0x58
 8002cd4:	f423 3340 	bic.w	r3, r3, #196608	; 0x30000
 8002cd8:	f8d4 10a0 	ldr.w	r1, [r4, #160]	; 0xa0
 8002cdc:	430b      	orrs	r3, r1
 8002cde:	6593      	str	r3, [r2, #88]	; 0x58
 8002ce0:	6823      	ldr	r3, [r4, #0]
 8002ce2:	f413 2f80 	tst.w	r3, #262144	; 0x40000
 8002ce6:	d024      	beq.n	8002d32 <HAL_RCCEx_PeriphCLKConfig+0x832>
 8002ce8:	f8d4 3084 	ldr.w	r3, [r4, #132]	; 0x84
 8002cec:	f5b3 1f00 	cmp.w	r3, #2097152	; 0x200000
 8002cf0:	d02a      	beq.n	8002d48 <HAL_RCCEx_PeriphCLKConfig+0x848>
 8002cf2:	f5b3 1f40 	cmp.w	r3, #3145728	; 0x300000
 8002cf6:	d013      	beq.n	8002d20 <HAL_RCCEx_PeriphCLKConfig+0x820>
 8002cf8:	f5b3 1f80 	cmp.w	r3, #1048576	; 0x100000
 8002cfc:	d00b      	beq.n	8002d16 <HAL_RCCEx_PeriphCLKConfig+0x816>
 8002cfe:	2601      	movs	r6, #1
 8002d00:	e00e      	b.n	8002d20 <HAL_RCCEx_PeriphCLKConfig+0x820>
 8002d02:	2102      	movs	r1, #2
 8002d04:	f104 0024 	add.w	r0, r4, #36	; 0x24
 8002d08:	f7ff fb86 	bl	8002418 <RCCEx_PLL3_Config>
 8002d0c:	4606      	mov	r6, r0
 8002d0e:	e7de      	b.n	8002cce <HAL_RCCEx_PeriphCLKConfig+0x7ce>
 8002d10:	4335      	orrs	r5, r6
 8002d12:	b2ed      	uxtb	r5, r5
 8002d14:	e7e4      	b.n	8002ce0 <HAL_RCCEx_PeriphCLKConfig+0x7e0>
 8002d16:	4a54      	ldr	r2, [pc, #336]	; (8002e68 <HAL_RCCEx_PeriphCLKConfig+0x968>)
 8002d18:	6ad3      	ldr	r3, [r2, #44]	; 0x2c
 8002d1a:	f443 3300 	orr.w	r3, r3, #131072	; 0x20000
 8002d1e:	62d3      	str	r3, [r2, #44]	; 0x2c
 8002d20:	b9ce      	cbnz	r6, 8002d56 <HAL_RCCEx_PeriphCLKConfig+0x856>
 8002d22:	4a51      	ldr	r2, [pc, #324]	; (8002e68 <HAL_RCCEx_PeriphCLKConfig+0x968>)
 8002d24:	6d53      	ldr	r3, [r2, #84]	; 0x54
 8002d26:	f423 1340 	bic.w	r3, r3, #3145728	; 0x300000
 8002d2a:	f8d4 1084 	ldr.w	r1, [r4, #132]	; 0x84
 8002d2e:	430b      	orrs	r3, r1
 8002d30:	6553      	str	r3, [r2, #84]	; 0x54
 8002d32:	6823      	ldr	r3, [r4, #0]
 8002d34:	f413 3f80 	tst.w	r3, #65536	; 0x10000
 8002d38:	d01d      	beq.n	8002d76 <HAL_RCCEx_PeriphCLKConfig+0x876>
 8002d3a:	6ce3      	ldr	r3, [r4, #76]	; 0x4c
 8002d3c:	b173      	cbz	r3, 8002d5c <HAL_RCCEx_PeriphCLKConfig+0x85c>
 8002d3e:	f5b3 3f80 	cmp.w	r3, #65536	; 0x10000
 8002d42:	d02c      	beq.n	8002d9e <HAL_RCCEx_PeriphCLKConfig+0x89e>
 8002d44:	2601      	movs	r6, #1
 8002d46:	e00e      	b.n	8002d66 <HAL_RCCEx_PeriphCLKConfig+0x866>
 8002d48:	2101      	movs	r1, #1
 8002d4a:	f104 0024 	add.w	r0, r4, #36	; 0x24
 8002d4e:	f7ff fb63 	bl	8002418 <RCCEx_PLL3_Config>
 8002d52:	4606      	mov	r6, r0
 8002d54:	e7e4      	b.n	8002d20 <HAL_RCCEx_PeriphCLKConfig+0x820>
 8002d56:	4335      	orrs	r5, r6
 8002d58:	b2ed      	uxtb	r5, r5
 8002d5a:	e7ea      	b.n	8002d32 <HAL_RCCEx_PeriphCLKConfig+0x832>
 8002d5c:	4a42      	ldr	r2, [pc, #264]	; (8002e68 <HAL_RCCEx_PeriphCLKConfig+0x968>)
 8002d5e:	6ad3      	ldr	r3, [r2, #44]	; 0x2c
 8002d60:	f443 3300 	orr.w	r3, r3, #131072	; 0x20000
 8002d64:	62d3      	str	r3, [r2, #44]	; 0x2c
 8002d66:	bb06      	cbnz	r6, 8002daa <HAL_RCCEx_PeriphCLKConfig+0x8aa>
 8002d68:	4a3f      	ldr	r2, [pc, #252]	; (8002e68 <HAL_RCCEx_PeriphCLKConfig+0x968>)
 8002d6a:	6cd3      	ldr	r3, [r2, #76]	; 0x4c
 8002d6c:	f423 3380 	bic.w	r3, r3, #65536	; 0x10000
 8002d70:	6ce1      	ldr	r1, [r4, #76]	; 0x4c
 8002d72:	430b      	orrs	r3, r1
 8002d74:	64d3      	str	r3, [r2, #76]	; 0x4c
 8002d76:	6823      	ldr	r3, [r4, #0]
 8002d78:	f013 5f00 	tst.w	r3, #536870912	; 0x20000000
 8002d7c:	d118      	bne.n	8002db0 <HAL_RCCEx_PeriphCLKConfig+0x8b0>
 8002d7e:	6823      	ldr	r3, [r4, #0]
 8002d80:	f413 3f00 	tst.w	r3, #131072	; 0x20000
 8002d84:	d02d      	beq.n	8002de2 <HAL_RCCEx_PeriphCLKConfig+0x8e2>
 8002d86:	6fe3      	ldr	r3, [r4, #124]	; 0x7c
 8002d88:	f5b3 7f80 	cmp.w	r3, #256	; 0x100
 8002d8c:	d01b      	beq.n	8002dc6 <HAL_RCCEx_PeriphCLKConfig+0x8c6>
 8002d8e:	d917      	bls.n	8002dc0 <HAL_RCCEx_PeriphCLKConfig+0x8c0>
 8002d90:	f5b3 7f00 	cmp.w	r3, #512	; 0x200
 8002d94:	d01c      	beq.n	8002dd0 <HAL_RCCEx_PeriphCLKConfig+0x8d0>
 8002d96:	f5b3 7f40 	cmp.w	r3, #768	; 0x300
 8002d9a:	d112      	bne.n	8002dc2 <HAL_RCCEx_PeriphCLKConfig+0x8c2>
 8002d9c:	e018      	b.n	8002dd0 <HAL_RCCEx_PeriphCLKConfig+0x8d0>
 8002d9e:	2102      	movs	r1, #2
 8002da0:	1d20      	adds	r0, r4, #4
 8002da2:	f7ff fac5 	bl	8002330 <RCCEx_PLL2_Config>
 8002da6:	4606      	mov	r6, r0
 8002da8:	e7dd      	b.n	8002d66 <HAL_RCCEx_PeriphCLKConfig+0x866>
 8002daa:	4335      	orrs	r5, r6
 8002dac:	b2ed      	uxtb	r5, r5
 8002dae:	e7e2      	b.n	8002d76 <HAL_RCCEx_PeriphCLKConfig+0x876>
 8002db0:	2102      	movs	r1, #2
 8002db2:	f104 0024 	add.w	r0, r4, #36	; 0x24
 8002db6:	f7ff fb2f 	bl	8002418 <RCCEx_PLL3_Config>
 8002dba:	4305      	orrs	r5, r0
 8002dbc:	b2ed      	uxtb	r5, r5
 8002dbe:	e7de      	b.n	8002d7e <HAL_RCCEx_PeriphCLKConfig+0x87e>
 8002dc0:	b133      	cbz	r3, 8002dd0 <HAL_RCCEx_PeriphCLKConfig+0x8d0>
 8002dc2:	2601      	movs	r6, #1
 8002dc4:	e004      	b.n	8002dd0 <HAL_RCCEx_PeriphCLKConfig+0x8d0>
 8002dc6:	4a28      	ldr	r2, [pc, #160]	; (8002e68 <HAL_RCCEx_PeriphCLKConfig+0x968>)
 8002dc8:	6ad3      	ldr	r3, [r2, #44]	; 0x2c
 8002dca:	f443 3300 	orr.w	r3, r3, #131072	; 0x20000
 8002dce:	62d3      	str	r3, [r2, #44]	; 0x2c
 8002dd0:	2e00      	cmp	r6, #0
 8002dd2:	d13d      	bne.n	8002e50 <HAL_RCCEx_PeriphCLKConfig+0x950>
 8002dd4:	4a24      	ldr	r2, [pc, #144]	; (8002e68 <HAL_RCCEx_PeriphCLKConfig+0x968>)
 8002dd6:	6d53      	ldr	r3, [r2, #84]	; 0x54
 8002dd8:	f423 7340 	bic.w	r3, r3, #768	; 0x300
 8002ddc:	6fe1      	ldr	r1, [r4, #124]	; 0x7c
 8002dde:	430b      	orrs	r3, r1
 8002de0:	6553      	str	r3, [r2, #84]	; 0x54
 8002de2:	6823      	ldr	r3, [r4, #0]
 8002de4:	f413 1f80 	tst.w	r3, #1048576	; 0x100000
 8002de8:	d006      	beq.n	8002df8 <HAL_RCCEx_PeriphCLKConfig+0x8f8>
 8002dea:	4a1f      	ldr	r2, [pc, #124]	; (8002e68 <HAL_RCCEx_PeriphCLKConfig+0x968>)
 8002dec:	6d13      	ldr	r3, [r2, #80]	; 0x50
 8002dee:	f023 4300 	bic.w	r3, r3, #2147483648	; 0x80000000
 8002df2:	6f21      	ldr	r1, [r4, #112]	; 0x70
 8002df4:	430b      	orrs	r3, r1
 8002df6:	6513      	str	r3, [r2, #80]	; 0x50
 8002df8:	6823      	ldr	r3, [r4, #0]
 8002dfa:	f013 5f80 	tst.w	r3, #268435456	; 0x10000000
 8002dfe:	d007      	beq.n	8002e10 <HAL_RCCEx_PeriphCLKConfig+0x910>
 8002e00:	4a19      	ldr	r2, [pc, #100]	; (8002e68 <HAL_RCCEx_PeriphCLKConfig+0x968>)
 8002e02:	6913      	ldr	r3, [r2, #16]
 8002e04:	f423 4380 	bic.w	r3, r3, #16384	; 0x4000
 8002e08:	f8d4 10b4 	ldr.w	r1, [r4, #180]	; 0xb4
 8002e0c:	430b      	orrs	r3, r1
 8002e0e:	6113      	str	r3, [r2, #16]
 8002e10:	6823      	ldr	r3, [r4, #0]
 8002e12:	f413 1f00 	tst.w	r3, #2097152	; 0x200000
 8002e16:	d006      	beq.n	8002e26 <HAL_RCCEx_PeriphCLKConfig+0x926>
 8002e18:	4a13      	ldr	r2, [pc, #76]	; (8002e68 <HAL_RCCEx_PeriphCLKConfig+0x968>)
 8002e1a:	6d13      	ldr	r3, [r2, #80]	; 0x50
 8002e1c:	f023 7380 	bic.w	r3, r3, #16777216	; 0x1000000
 8002e20:	6ea1      	ldr	r1, [r4, #104]	; 0x68
 8002e22:	430b      	orrs	r3, r1
 8002e24:	6513      	str	r3, [r2, #80]	; 0x50
 8002e26:	6823      	ldr	r3, [r4, #0]
 8002e28:	f013 4f80 	tst.w	r3, #1073741824	; 0x40000000
 8002e2c:	d009      	beq.n	8002e42 <HAL_RCCEx_PeriphCLKConfig+0x942>
 8002e2e:	4b0e      	ldr	r3, [pc, #56]	; (8002e68 <HAL_RCCEx_PeriphCLKConfig+0x968>)
 8002e30:	691a      	ldr	r2, [r3, #16]
 8002e32:	f422 4200 	bic.w	r2, r2, #32768	; 0x8000
 8002e36:	611a      	str	r2, [r3, #16]
 8002e38:	691a      	ldr	r2, [r3, #16]
 8002e3a:	f8d4 10b8 	ldr.w	r1, [r4, #184]	; 0xb8
 8002e3e:	430a      	orrs	r2, r1
 8002e40:	611a      	str	r2, [r3, #16]
 8002e42:	6823      	ldr	r3, [r4, #0]
 8002e44:	2b00      	cmp	r3, #0
 8002e46:	db06      	blt.n	8002e56 <HAL_RCCEx_PeriphCLKConfig+0x956>
 8002e48:	b105      	cbz	r5, 8002e4c <HAL_RCCEx_PeriphCLKConfig+0x94c>
 8002e4a:	2501      	movs	r5, #1
 8002e4c:	4628      	mov	r0, r5
 8002e4e:	bdf8      	pop	{r3, r4, r5, r6, r7, pc}
 8002e50:	4335      	orrs	r5, r6
 8002e52:	b2ed      	uxtb	r5, r5
 8002e54:	e7c5      	b.n	8002de2 <HAL_RCCEx_PeriphCLKConfig+0x8e2>
 8002e56:	4a04      	ldr	r2, [pc, #16]	; (8002e68 <HAL_RCCEx_PeriphCLKConfig+0x968>)
 8002e58:	6cd3      	ldr	r3, [r2, #76]	; 0x4c
 8002e5a:	f023 5340 	bic.w	r3, r3, #805306368	; 0x30000000
 8002e5e:	6d21      	ldr	r1, [r4, #80]	; 0x50
 8002e60:	430b      	orrs	r3, r1
 8002e62:	64d3      	str	r3, [r2, #76]	; 0x4c
 8002e64:	e7f0      	b.n	8002e48 <HAL_RCCEx_PeriphCLKConfig+0x948>
 8002e66:	bf00      	nop
 8002e68:	58024400 	.word	0x58024400

08002e6c <HAL_RCCEx_GetD3PCLK1Freq>:
 8002e6c:	b508      	push	{r3, lr}
 8002e6e:	f7ff fa19 	bl	80022a4 <HAL_RCC_GetHCLKFreq>
 8002e72:	4b07      	ldr	r3, [pc, #28]	; (8002e90 <HAL_RCCEx_GetD3PCLK1Freq+0x24>)
 8002e74:	6a1b      	ldr	r3, [r3, #32]
 8002e76:	f003 0370 	and.w	r3, r3, #112	; 0x70
 8002e7a:	2210      	movs	r2, #16
 8002e7c:	fa92 f2a2 	rbit	r2, r2
 8002e80:	fab2 f282 	clz	r2, r2
 8002e84:	40d3      	lsrs	r3, r2
 8002e86:	4a03      	ldr	r2, [pc, #12]	; (8002e94 <HAL_RCCEx_GetD3PCLK1Freq+0x28>)
 8002e88:	5cd3      	ldrb	r3, [r2, r3]
 8002e8a:	40d8      	lsrs	r0, r3
 8002e8c:	bd08      	pop	{r3, pc}
 8002e8e:	bf00      	nop
 8002e90:	58024400 	.word	0x58024400
 8002e94:	08007b94 	.word	0x08007b94

08002e98 <HAL_RCCEx_GetPLL2ClockFreq>:
 8002e98:	b5f0      	push	{r4, r5, r6, r7, lr}
 8002e9a:	4c6c      	ldr	r4, [pc, #432]	; (800304c <HAL_RCCEx_GetPLL2ClockFreq+0x1b4>)
 8002e9c:	6aa7      	ldr	r7, [r4, #40]	; 0x28
 8002e9e:	f007 0703 	and.w	r7, r7, #3
 8002ea2:	6aa1      	ldr	r1, [r4, #40]	; 0x28
 8002ea4:	f3c1 3e05 	ubfx	lr, r1, #12, #6
 8002ea8:	6ae3      	ldr	r3, [r4, #44]	; 0x2c
 8002eaa:	f003 0310 	and.w	r3, r3, #16
 8002eae:	6be6      	ldr	r6, [r4, #60]	; 0x3c
 8002eb0:	f3c6 06cc 	ubfx	r6, r6, #3, #13
 8002eb4:	fb06 f603 	mul.w	r6, r6, r3
 8002eb8:	ee07 6a90 	vmov	s15, r6
 8002ebc:	eeb8 7a67 	vcvt.f32.u32	s14, s15
 8002ec0:	2f01      	cmp	r7, #1
 8002ec2:	d060      	beq.n	8002f86 <HAL_RCCEx_GetPLL2ClockFreq+0xee>
 8002ec4:	b1f7      	cbz	r7, 8002f04 <HAL_RCCEx_GetPLL2ClockFreq+0x6c>
 8002ec6:	2f02      	cmp	r7, #2
 8002ec8:	f000 80a4 	beq.w	8003014 <HAL_RCCEx_GetPLL2ClockFreq+0x17c>
 8002ecc:	4b60      	ldr	r3, [pc, #384]	; (8003050 <HAL_RCCEx_GetPLL2ClockFreq+0x1b8>)
 8002ece:	fbb3 f3fe 	udiv	r3, r3, lr
 8002ed2:	ee07 3a90 	vmov	s15, r3
 8002ed6:	eef8 7a67 	vcvt.f32.u32	s15, s15
 8002eda:	4b5c      	ldr	r3, [pc, #368]	; (800304c <HAL_RCCEx_GetPLL2ClockFreq+0x1b4>)
 8002edc:	6b9b      	ldr	r3, [r3, #56]	; 0x38
 8002ede:	f3c3 0308 	ubfx	r3, r3, #0, #9
 8002ee2:	eddf 6a5c 	vldr	s13, [pc, #368]	; 8003054 <HAL_RCCEx_GetPLL2ClockFreq+0x1bc>
 8002ee6:	ee27 7a26 	vmul.f32	s14, s14, s13
 8002eea:	ee06 3a90 	vmov	s13, r3
 8002eee:	eef8 6a66 	vcvt.f32.u32	s13, s13
 8002ef2:	ee36 7a87 	vadd.f32	s14, s13, s14
 8002ef6:	eef7 6a00 	vmov.f32	s13, #112	; 0x3f800000  1.0
 8002efa:	ee37 7a26 	vadd.f32	s14, s14, s13
 8002efe:	ee67 7a87 	vmul.f32	s15, s15, s14
 8002f02:	e05b      	b.n	8002fbc <HAL_RCCEx_GetPLL2ClockFreq+0x124>
 8002f04:	4b51      	ldr	r3, [pc, #324]	; (800304c <HAL_RCCEx_GetPLL2ClockFreq+0x1b4>)
 8002f06:	681b      	ldr	r3, [r3, #0]
 8002f08:	f013 0f20 	tst.w	r3, #32
 8002f0c:	d01f      	beq.n	8002f4e <HAL_RCCEx_GetPLL2ClockFreq+0xb6>
 8002f0e:	4a4f      	ldr	r2, [pc, #316]	; (800304c <HAL_RCCEx_GetPLL2ClockFreq+0x1b4>)
 8002f10:	6813      	ldr	r3, [r2, #0]
 8002f12:	f3c3 03c1 	ubfx	r3, r3, #3, #2
 8002f16:	4d50      	ldr	r5, [pc, #320]	; (8003058 <HAL_RCCEx_GetPLL2ClockFreq+0x1c0>)
 8002f18:	40dd      	lsrs	r5, r3
 8002f1a:	fbb5 f3fe 	udiv	r3, r5, lr
 8002f1e:	ee07 3a90 	vmov	s15, r3
 8002f22:	eef8 7a67 	vcvt.f32.u32	s15, s15
 8002f26:	6b93      	ldr	r3, [r2, #56]	; 0x38
 8002f28:	f3c3 0308 	ubfx	r3, r3, #0, #9
 8002f2c:	eddf 6a49 	vldr	s13, [pc, #292]	; 8003054 <HAL_RCCEx_GetPLL2ClockFreq+0x1bc>
 8002f30:	ee27 7a26 	vmul.f32	s14, s14, s13
 8002f34:	ee06 3a90 	vmov	s13, r3
 8002f38:	eef8 6a66 	vcvt.f32.u32	s13, s13
 8002f3c:	ee36 7a87 	vadd.f32	s14, s13, s14
 8002f40:	eef7 6a00 	vmov.f32	s13, #112	; 0x3f800000  1.0
 8002f44:	ee37 7a26 	vadd.f32	s14, s14, s13
 8002f48:	ee67 7a87 	vmul.f32	s15, s15, s14
 8002f4c:	e036      	b.n	8002fbc <HAL_RCCEx_GetPLL2ClockFreq+0x124>
 8002f4e:	4c42      	ldr	r4, [pc, #264]	; (8003058 <HAL_RCCEx_GetPLL2ClockFreq+0x1c0>)
 8002f50:	fbb4 f3fe 	udiv	r3, r4, lr
 8002f54:	ee07 3a90 	vmov	s15, r3
 8002f58:	eef8 7a67 	vcvt.f32.u32	s15, s15
 8002f5c:	4b3b      	ldr	r3, [pc, #236]	; (800304c <HAL_RCCEx_GetPLL2ClockFreq+0x1b4>)
 8002f5e:	6b9b      	ldr	r3, [r3, #56]	; 0x38
 8002f60:	f3c3 0308 	ubfx	r3, r3, #0, #9
 8002f64:	eddf 6a3b 	vldr	s13, [pc, #236]	; 8003054 <HAL_RCCEx_GetPLL2ClockFreq+0x1bc>
 8002f68:	ee27 7a26 	vmul.f32	s14, s14, s13
 8002f6c:	ee06 3a90 	vmov	s13, r3
 8002f70:	eef8 6a66 	vcvt.f32.u32	s13, s13
 8002f74:	ee36 7a87 	vadd.f32	s14, s13, s14
 8002f78:	eef7 6a00 	vmov.f32	s13, #112	; 0x3f800000  1.0
 8002f7c:	ee37 7a26 	vadd.f32	s14, s14, s13
 8002f80:	ee67 7a87 	vmul.f32	s15, s15, s14
 8002f84:	e01a      	b.n	8002fbc <HAL_RCCEx_GetPLL2ClockFreq+0x124>
 8002f86:	4932      	ldr	r1, [pc, #200]	; (8003050 <HAL_RCCEx_GetPLL2ClockFreq+0x1b8>)
 8002f88:	fbb1 f3fe 	udiv	r3, r1, lr
 8002f8c:	ee07 3a90 	vmov	s15, r3
 8002f90:	eef8 7a67 	vcvt.f32.u32	s15, s15
 8002f94:	4b2d      	ldr	r3, [pc, #180]	; (800304c <HAL_RCCEx_GetPLL2ClockFreq+0x1b4>)
 8002f96:	6b9b      	ldr	r3, [r3, #56]	; 0x38
 8002f98:	f3c3 0308 	ubfx	r3, r3, #0, #9
 8002f9c:	eddf 6a2d 	vldr	s13, [pc, #180]	; 8003054 <HAL_RCCEx_GetPLL2ClockFreq+0x1bc>
 8002fa0:	ee27 7a26 	vmul.f32	s14, s14, s13
 8002fa4:	ee06 3a90 	vmov	s13, r3
 8002fa8:	eef8 6a66 	vcvt.f32.u32	s13, s13
 8002fac:	ee36 7a87 	vadd.f32	s14, s13, s14
 8002fb0:	eef7 6a00 	vmov.f32	s13, #112	; 0x3f800000  1.0
 8002fb4:	ee37 7a26 	vadd.f32	s14, s14, s13
 8002fb8:	ee67 7a87 	vmul.f32	s15, s15, s14
 8002fbc:	4a23      	ldr	r2, [pc, #140]	; (800304c <HAL_RCCEx_GetPLL2ClockFreq+0x1b4>)
 8002fbe:	6b93      	ldr	r3, [r2, #56]	; 0x38
 8002fc0:	f3c3 2346 	ubfx	r3, r3, #9, #7
 8002fc4:	3301      	adds	r3, #1
 8002fc6:	ee07 3a10 	vmov	s14, r3
 8002fca:	eeb8 7a47 	vcvt.f32.u32	s14, s14
 8002fce:	eec7 6a87 	vdiv.f32	s13, s15, s14
 8002fd2:	eefc 6ae6 	vcvt.u32.f32	s13, s13
 8002fd6:	edc0 6a00 	vstr	s13, [r0]
 8002fda:	6b93      	ldr	r3, [r2, #56]	; 0x38
 8002fdc:	f3c3 4306 	ubfx	r3, r3, #16, #7
 8002fe0:	3301      	adds	r3, #1
 8002fe2:	ee07 3a10 	vmov	s14, r3
 8002fe6:	eeb8 7a47 	vcvt.f32.u32	s14, s14
 8002fea:	eec7 6a87 	vdiv.f32	s13, s15, s14
 8002fee:	eefc 6ae6 	vcvt.u32.f32	s13, s13
 8002ff2:	edc0 6a01 	vstr	s13, [r0, #4]
 8002ff6:	6b93      	ldr	r3, [r2, #56]	; 0x38
 8002ff8:	f3c3 6306 	ubfx	r3, r3, #24, #7
 8002ffc:	3301      	adds	r3, #1
 8002ffe:	ee07 3a10 	vmov	s14, r3
 8003002:	eeb8 7a47 	vcvt.f32.u32	s14, s14
 8003006:	eec7 6a87 	vdiv.f32	s13, s15, s14
 800300a:	eefc 6ae6 	vcvt.u32.f32	s13, s13
 800300e:	edc0 6a02 	vstr	s13, [r0, #8]
 8003012:	bdf0      	pop	{r4, r5, r6, r7, pc}
 8003014:	4a11      	ldr	r2, [pc, #68]	; (800305c <HAL_RCCEx_GetPLL2ClockFreq+0x1c4>)
 8003016:	fbb2 f3fe 	udiv	r3, r2, lr
 800301a:	ee07 3a90 	vmov	s15, r3
 800301e:	eef8 7a67 	vcvt.f32.u32	s15, s15
 8003022:	4b0a      	ldr	r3, [pc, #40]	; (800304c <HAL_RCCEx_GetPLL2ClockFreq+0x1b4>)
 8003024:	6b9b      	ldr	r3, [r3, #56]	; 0x38
 8003026:	f3c3 0308 	ubfx	r3, r3, #0, #9
 800302a:	eddf 6a0a 	vldr	s13, [pc, #40]	; 8003054 <HAL_RCCEx_GetPLL2ClockFreq+0x1bc>
 800302e:	ee27 7a26 	vmul.f32	s14, s14, s13
 8003032:	ee06 3a90 	vmov	s13, r3
 8003036:	eef8 6a66 	vcvt.f32.u32	s13, s13
 800303a:	ee36 7a87 	vadd.f32	s14, s13, s14
 800303e:	eef7 6a00 	vmov.f32	s13, #112	; 0x3f800000  1.0
 8003042:	ee37 7a26 	vadd.f32	s14, s14, s13
 8003046:	ee67 7a87 	vmul.f32	s15, s15, s14
 800304a:	e7b7      	b.n	8002fbc <HAL_RCCEx_GetPLL2ClockFreq+0x124>
 800304c:	58024400 	.word	0x58024400
 8003050:	003d0900 	.word	0x003d0900
 8003054:	39000000 	.word	0x39000000
 8003058:	03d09000 	.word	0x03d09000
 800305c:	007a1200 	.word	0x007a1200

08003060 <HAL_RCCEx_GetPLL3ClockFreq>:
 8003060:	b5f0      	push	{r4, r5, r6, r7, lr}
 8003062:	4c6c      	ldr	r4, [pc, #432]	; (8003214 <HAL_RCCEx_GetPLL3ClockFreq+0x1b4>)
 8003064:	6aa7      	ldr	r7, [r4, #40]	; 0x28
 8003066:	f007 0703 	and.w	r7, r7, #3
 800306a:	6aa1      	ldr	r1, [r4, #40]	; 0x28
 800306c:	f3c1 5e05 	ubfx	lr, r1, #20, #6
 8003070:	6ae3      	ldr	r3, [r4, #44]	; 0x2c
 8003072:	f403 7380 	and.w	r3, r3, #256	; 0x100
 8003076:	6c66      	ldr	r6, [r4, #68]	; 0x44
 8003078:	f3c6 06cc 	ubfx	r6, r6, #3, #13
 800307c:	fb06 f603 	mul.w	r6, r6, r3
 8003080:	ee07 6a90 	vmov	s15, r6
 8003084:	eeb8 7a67 	vcvt.f32.u32	s14, s15
 8003088:	2f01      	cmp	r7, #1
 800308a:	d060      	beq.n	800314e <HAL_RCCEx_GetPLL3ClockFreq+0xee>
 800308c:	b1f7      	cbz	r7, 80030cc <HAL_RCCEx_GetPLL3ClockFreq+0x6c>
 800308e:	2f02      	cmp	r7, #2
 8003090:	f000 80a4 	beq.w	80031dc <HAL_RCCEx_GetPLL3ClockFreq+0x17c>
 8003094:	4b60      	ldr	r3, [pc, #384]	; (8003218 <HAL_RCCEx_GetPLL3ClockFreq+0x1b8>)
 8003096:	fbb3 f3fe 	udiv	r3, r3, lr
 800309a:	ee07 3a90 	vmov	s15, r3
 800309e:	eef8 7a67 	vcvt.f32.u32	s15, s15
 80030a2:	4b5c      	ldr	r3, [pc, #368]	; (8003214 <HAL_RCCEx_GetPLL3ClockFreq+0x1b4>)
 80030a4:	6c1b      	ldr	r3, [r3, #64]	; 0x40
 80030a6:	f3c3 0308 	ubfx	r3, r3, #0, #9
 80030aa:	eddf 6a5c 	vldr	s13, [pc, #368]	; 800321c <HAL_RCCEx_GetPLL3ClockFreq+0x1bc>
 80030ae:	ee27 7a26 	vmul.f32	s14, s14, s13
 80030b2:	ee06 3a90 	vmov	s13, r3
 80030b6:	eef8 6a66 	vcvt.f32.u32	s13, s13
 80030ba:	ee36 7a87 	vadd.f32	s14, s13, s14
 80030be:	eef7 6a00 	vmov.f32	s13, #112	; 0x3f800000  1.0
 80030c2:	ee37 7a26 	vadd.f32	s14, s14, s13
 80030c6:	ee67 7a87 	vmul.f32	s15, s15, s14
 80030ca:	e05b      	b.n	8003184 <HAL_RCCEx_GetPLL3ClockFreq+0x124>
 80030cc:	4b51      	ldr	r3, [pc, #324]	; (8003214 <HAL_RCCEx_GetPLL3ClockFreq+0x1b4>)
 80030ce:	681b      	ldr	r3, [r3, #0]
 80030d0:	f013 0f20 	tst.w	r3, #32
 80030d4:	d01f      	beq.n	8003116 <HAL_RCCEx_GetPLL3ClockFreq+0xb6>
 80030d6:	4a4f      	ldr	r2, [pc, #316]	; (8003214 <HAL_RCCEx_GetPLL3ClockFreq+0x1b4>)
 80030d8:	6813      	ldr	r3, [r2, #0]
 80030da:	f3c3 03c1 	ubfx	r3, r3, #3, #2
 80030de:	4d50      	ldr	r5, [pc, #320]	; (8003220 <HAL_RCCEx_GetPLL3ClockFreq+0x1c0>)
 80030e0:	40dd      	lsrs	r5, r3
 80030e2:	fbb5 f3fe 	udiv	r3, r5, lr
 80030e6:	ee07 3a90 	vmov	s15, r3
 80030ea:	eef8 7a67 	vcvt.f32.u32	s15, s15
 80030ee:	6c13      	ldr	r3, [r2, #64]	; 0x40
 80030f0:	f3c3 0308 	ubfx	r3, r3, #0, #9
 80030f4:	eddf 6a49 	vldr	s13, [pc, #292]	; 800321c <HAL_RCCEx_GetPLL3ClockFreq+0x1bc>
 80030f8:	ee27 7a26 	vmul.f32	s14, s14, s13
 80030fc:	ee06 3a90 	vmov	s13, r3
 8003100:	eef8 6a66 	vcvt.f32.u32	s13, s13
 8003104:	ee36 7a87 	vadd.f32	s14, s13, s14
 8003108:	eef7 6a00 	vmov.f32	s13, #112	; 0x3f800000  1.0
 800310c:	ee37 7a26 	vadd.f32	s14, s14, s13
 8003110:	ee67 7a87 	vmul.f32	s15, s15, s14
 8003114:	e036      	b.n	8003184 <HAL_RCCEx_GetPLL3ClockFreq+0x124>
 8003116:	4c42      	ldr	r4, [pc, #264]	; (8003220 <HAL_RCCEx_GetPLL3ClockFreq+0x1c0>)
 8003118:	fbb4 f3fe 	udiv	r3, r4, lr
 800311c:	ee07 3a90 	vmov	s15, r3
 8003120:	eef8 7a67 	vcvt.f32.u32	s15, s15
 8003124:	4b3b      	ldr	r3, [pc, #236]	; (8003214 <HAL_RCCEx_GetPLL3ClockFreq+0x1b4>)
 8003126:	6c1b      	ldr	r3, [r3, #64]	; 0x40
 8003128:	f3c3 0308 	ubfx	r3, r3, #0, #9
 800312c:	eddf 6a3b 	vldr	s13, [pc, #236]	; 800321c <HAL_RCCEx_GetPLL3ClockFreq+0x1bc>
 8003130:	ee27 7a26 	vmul.f32	s14, s14, s13
 8003134:	ee06 3a90 	vmov	s13, r3
 8003138:	eef8 6a66 	vcvt.f32.u32	s13, s13
 800313c:	ee36 7a87 	vadd.f32	s14, s13, s14
 8003140:	eef7 6a00 	vmov.f32	s13, #112	; 0x3f800000  1.0
 8003144:	ee37 7a26 	vadd.f32	s14, s14, s13
 8003148:	ee67 7a87 	vmul.f32	s15, s15, s14
 800314c:	e01a      	b.n	8003184 <HAL_RCCEx_GetPLL3ClockFreq+0x124>
 800314e:	4932      	ldr	r1, [pc, #200]	; (8003218 <HAL_RCCEx_GetPLL3ClockFreq+0x1b8>)
 8003150:	fbb1 f3fe 	udiv	r3, r1, lr
 8003154:	ee07 3a90 	vmov	s15, r3
 8003158:	eef8 7a67 	vcvt.f32.u32	s15, s15
 800315c:	4b2d      	ldr	r3, [pc, #180]	; (8003214 <HAL_RCCEx_GetPLL3ClockFreq+0x1b4>)
 800315e:	6c1b      	ldr	r3, [r3, #64]	; 0x40
 8003160:	f3c3 0308 	ubfx	r3, r3, #0, #9
 8003164:	eddf 6a2d 	vldr	s13, [pc, #180]	; 800321c <HAL_RCCEx_GetPLL3ClockFreq+0x1bc>
 8003168:	ee27 7a26 	vmul.f32	s14, s14, s13
 800316c:	ee06 3a90 	vmov	s13, r3
 8003170:	eef8 6a66 	vcvt.f32.u32	s13, s13
 8003174:	ee36 7a87 	vadd.f32	s14, s13, s14
 8003178:	eef7 6a00 	vmov.f32	s13, #112	; 0x3f800000  1.0
 800317c:	ee37 7a26 	vadd.f32	s14, s14, s13
 8003180:	ee67 7a87 	vmul.f32	s15, s15, s14
 8003184:	4a23      	ldr	r2, [pc, #140]	; (8003214 <HAL_RCCEx_GetPLL3ClockFreq+0x1b4>)
 8003186:	6c13      	ldr	r3, [r2, #64]	; 0x40
 8003188:	f3c3 2346 	ubfx	r3, r3, #9, #7
 800318c:	3301      	adds	r3, #1
 800318e:	ee07 3a10 	vmov	s14, r3
 8003192:	eeb8 7a47 	vcvt.f32.u32	s14, s14
 8003196:	eec7 6a87 	vdiv.f32	s13, s15, s14
 800319a:	eefc 6ae6 	vcvt.u32.f32	s13, s13
 800319e:	edc0 6a00 	vstr	s13, [r0]
 80031a2:	6c13      	ldr	r3, [r2, #64]	; 0x40
 80031a4:	f3c3 4306 	ubfx	r3, r3, #16, #7
 80031a8:	3301      	adds	r3, #1
 80031aa:	ee07 3a10 	vmov	s14, r3
 80031ae:	eeb8 7a47 	vcvt.f32.u32	s14, s14
 80031b2:	eec7 6a87 	vdiv.f32	s13, s15, s14
 80031b6:	eefc 6ae6 	vcvt.u32.f32	s13, s13
 80031ba:	edc0 6a01 	vstr	s13, [r0, #4]
 80031be:	6c13      	ldr	r3, [r2, #64]	; 0x40
 80031c0:	f3c3 6306 	ubfx	r3, r3, #24, #7
 80031c4:	3301      	adds	r3, #1
 80031c6:	ee07 3a10 	vmov	s14, r3
 80031ca:	eeb8 7a47 	vcvt.f32.u32	s14, s14
 80031ce:	eec7 6a87 	vdiv.f32	s13, s15, s14
 80031d2:	eefc 6ae6 	vcvt.u32.f32	s13, s13
 80031d6:	edc0 6a02 	vstr	s13, [r0, #8]
 80031da:	bdf0      	pop	{r4, r5, r6, r7, pc}
 80031dc:	4a11      	ldr	r2, [pc, #68]	; (8003224 <HAL_RCCEx_GetPLL3ClockFreq+0x1c4>)
 80031de:	fbb2 f3fe 	udiv	r3, r2, lr
 80031e2:	ee07 3a90 	vmov	s15, r3
 80031e6:	eef8 7a67 	vcvt.f32.u32	s15, s15
 80031ea:	4b0a      	ldr	r3, [pc, #40]	; (8003214 <HAL_RCCEx_GetPLL3ClockFreq+0x1b4>)
 80031ec:	6c1b      	ldr	r3, [r3, #64]	; 0x40
 80031ee:	f3c3 0308 	ubfx	r3, r3, #0, #9
 80031f2:	eddf 6a0a 	vldr	s13, [pc, #40]	; 800321c <HAL_RCCEx_GetPLL3ClockFreq+0x1bc>
 80031f6:	ee27 7a26 	vmul.f32	s14, s14, s13
 80031fa:	ee06 3a90 	vmov	s13, r3
 80031fe:	eef8 6a66 	vcvt.f32.u32	s13, s13
 8003202:	ee36 7a87 	vadd.f32	s14, s13, s14
 8003206:	eef7 6a00 	vmov.f32	s13, #112	; 0x3f800000  1.0
 800320a:	ee37 7a26 	vadd.f32	s14, s14, s13
 800320e:	ee67 7a87 	vmul.f32	s15, s15, s14
 8003212:	e7b7      	b.n	8003184 <HAL_RCCEx_GetPLL3ClockFreq+0x124>
 8003214:	58024400 	.word	0x58024400
 8003218:	003d0900 	.word	0x003d0900
 800321c:	39000000 	.word	0x39000000
 8003220:	03d09000 	.word	0x03d09000
 8003224:	007a1200 	.word	0x007a1200

08003228 <HAL_RCCEx_GetD1SysClockFreq>:
 8003228:	b508      	push	{r3, lr}
 800322a:	f7fe fe5d 	bl	8001ee8 <HAL_RCC_GetSysClockFreq>
 800322e:	4b08      	ldr	r3, [pc, #32]	; (8003250 <HAL_RCCEx_GetD1SysClockFreq+0x28>)
 8003230:	699b      	ldr	r3, [r3, #24]
 8003232:	f403 6370 	and.w	r3, r3, #3840	; 0xf00
 8003236:	f44f 7280 	mov.w	r2, #256	; 0x100
 800323a:	fa92 f2a2 	rbit	r2, r2
 800323e:	fab2 f282 	clz	r2, r2
 8003242:	40d3      	lsrs	r3, r2
 8003244:	4a03      	ldr	r2, [pc, #12]	; (8003254 <HAL_RCCEx_GetD1SysClockFreq+0x2c>)
 8003246:	5cd3      	ldrb	r3, [r2, r3]
 8003248:	40d8      	lsrs	r0, r3
 800324a:	4b03      	ldr	r3, [pc, #12]	; (8003258 <HAL_RCCEx_GetD1SysClockFreq+0x30>)
 800324c:	6018      	str	r0, [r3, #0]
 800324e:	bd08      	pop	{r3, pc}
 8003250:	58024400 	.word	0x58024400
 8003254:	08007b94 	.word	0x08007b94
 8003258:	20000010 	.word	0x20000010

0800325c <SPI_CloseTransfer>:
 800325c:	b410      	push	{r4}
 800325e:	6802      	ldr	r2, [r0, #0]
 8003260:	6953      	ldr	r3, [r2, #20]
 8003262:	6991      	ldr	r1, [r2, #24]
 8003264:	f041 0108 	orr.w	r1, r1, #8
 8003268:	6191      	str	r1, [r2, #24]
 800326a:	6801      	ldr	r1, [r0, #0]
 800326c:	698a      	ldr	r2, [r1, #24]
 800326e:	f042 0210 	orr.w	r2, r2, #16
 8003272:	618a      	str	r2, [r1, #24]
 8003274:	6801      	ldr	r1, [r0, #0]
 8003276:	680a      	ldr	r2, [r1, #0]
 8003278:	f022 0201 	bic.w	r2, r2, #1
 800327c:	600a      	str	r2, [r1, #0]
 800327e:	6801      	ldr	r1, [r0, #0]
 8003280:	690c      	ldr	r4, [r1, #16]
 8003282:	4a29      	ldr	r2, [pc, #164]	; (8003328 <SPI_CloseTransfer+0xcc>)
 8003284:	4022      	ands	r2, r4
 8003286:	610a      	str	r2, [r1, #16]
 8003288:	6801      	ldr	r1, [r0, #0]
 800328a:	688a      	ldr	r2, [r1, #8]
 800328c:	f422 4240 	bic.w	r2, r2, #49152	; 0xc000
 8003290:	608a      	str	r2, [r1, #8]
 8003292:	f890 2081 	ldrb.w	r2, [r0, #129]	; 0x81
 8003296:	b2d2      	uxtb	r2, r2
 8003298:	2a04      	cmp	r2, #4
 800329a:	d00d      	beq.n	80032b8 <SPI_CloseTransfer+0x5c>
 800329c:	f013 0f20 	tst.w	r3, #32
 80032a0:	d00a      	beq.n	80032b8 <SPI_CloseTransfer+0x5c>
 80032a2:	f8d0 2084 	ldr.w	r2, [r0, #132]	; 0x84
 80032a6:	f042 0280 	orr.w	r2, r2, #128	; 0x80
 80032aa:	f8c0 2084 	str.w	r2, [r0, #132]	; 0x84
 80032ae:	6801      	ldr	r1, [r0, #0]
 80032b0:	698a      	ldr	r2, [r1, #24]
 80032b2:	f042 0220 	orr.w	r2, r2, #32
 80032b6:	618a      	str	r2, [r1, #24]
 80032b8:	f890 2081 	ldrb.w	r2, [r0, #129]	; 0x81
 80032bc:	b2d2      	uxtb	r2, r2
 80032be:	2a03      	cmp	r2, #3
 80032c0:	d00d      	beq.n	80032de <SPI_CloseTransfer+0x82>
 80032c2:	f013 0f40 	tst.w	r3, #64	; 0x40
 80032c6:	d00a      	beq.n	80032de <SPI_CloseTransfer+0x82>
 80032c8:	f8d0 2084 	ldr.w	r2, [r0, #132]	; 0x84
 80032cc:	f042 0204 	orr.w	r2, r2, #4
 80032d0:	f8c0 2084 	str.w	r2, [r0, #132]	; 0x84
 80032d4:	6801      	ldr	r1, [r0, #0]
 80032d6:	698a      	ldr	r2, [r1, #24]
 80032d8:	f042 0240 	orr.w	r2, r2, #64	; 0x40
 80032dc:	618a      	str	r2, [r1, #24]
 80032de:	f413 7f00 	tst.w	r3, #512	; 0x200
 80032e2:	d00a      	beq.n	80032fa <SPI_CloseTransfer+0x9e>
 80032e4:	f8d0 2084 	ldr.w	r2, [r0, #132]	; 0x84
 80032e8:	f042 0201 	orr.w	r2, r2, #1
 80032ec:	f8c0 2084 	str.w	r2, [r0, #132]	; 0x84
 80032f0:	6801      	ldr	r1, [r0, #0]
 80032f2:	698a      	ldr	r2, [r1, #24]
 80032f4:	f442 7200 	orr.w	r2, r2, #512	; 0x200
 80032f8:	618a      	str	r2, [r1, #24]
 80032fa:	f413 7f80 	tst.w	r3, #256	; 0x100
 80032fe:	d00a      	beq.n	8003316 <SPI_CloseTransfer+0xba>
 8003300:	f8d0 3084 	ldr.w	r3, [r0, #132]	; 0x84
 8003304:	f043 0308 	orr.w	r3, r3, #8
 8003308:	f8c0 3084 	str.w	r3, [r0, #132]	; 0x84
 800330c:	6802      	ldr	r2, [r0, #0]
 800330e:	6993      	ldr	r3, [r2, #24]
 8003310:	f443 7380 	orr.w	r3, r3, #256	; 0x100
 8003314:	6193      	str	r3, [r2, #24]
 8003316:	2300      	movs	r3, #0
 8003318:	f8a0 3062 	strh.w	r3, [r0, #98]	; 0x62
 800331c:	f8a0 306a 	strh.w	r3, [r0, #106]	; 0x6a
 8003320:	f85d 4b04 	ldr.w	r4, [sp], #4
 8003324:	4770      	bx	lr
 8003326:	bf00      	nop
 8003328:	fffffc94 	.word	0xfffffc94

0800332c <SPI_GetPacketSize>:
 800332c:	6bc3      	ldr	r3, [r0, #60]	; 0x3c
 800332e:	095b      	lsrs	r3, r3, #5
 8003330:	68c0      	ldr	r0, [r0, #12]
 8003332:	3008      	adds	r0, #8
 8003334:	08c0      	lsrs	r0, r0, #3
 8003336:	fb03 0000 	mla	r0, r3, r0, r0
 800333a:	4770      	bx	lr

0800333c <SPI_WaitOnFlagUntilTimeout>:
 800333c:	e92d 41f0 	stmdb	sp!, {r4, r5, r6, r7, r8, lr}
 8003340:	4607      	mov	r7, r0
 8003342:	460e      	mov	r6, r1
 8003344:	4615      	mov	r5, r2
 8003346:	4698      	mov	r8, r3
 8003348:	9c06      	ldr	r4, [sp, #24]
 800334a:	683b      	ldr	r3, [r7, #0]
 800334c:	695b      	ldr	r3, [r3, #20]
 800334e:	ea36 0303 	bics.w	r3, r6, r3
 8003352:	bf0c      	ite	eq
 8003354:	2301      	moveq	r3, #1
 8003356:	2300      	movne	r3, #0
 8003358:	42ab      	cmp	r3, r5
 800335a:	d10c      	bne.n	8003376 <SPI_WaitOnFlagUntilTimeout+0x3a>
 800335c:	f1b4 3fff 	cmp.w	r4, #4294967295	; 0xffffffff
 8003360:	d0f3      	beq.n	800334a <SPI_WaitOnFlagUntilTimeout+0xe>
 8003362:	b15c      	cbz	r4, 800337c <SPI_WaitOnFlagUntilTimeout+0x40>
 8003364:	f7fd f97a 	bl	800065c <HAL_GetTick>
 8003368:	eba0 0008 	sub.w	r0, r0, r8
 800336c:	4284      	cmp	r4, r0
 800336e:	d2ec      	bcs.n	800334a <SPI_WaitOnFlagUntilTimeout+0xe>
 8003370:	2003      	movs	r0, #3
 8003372:	e8bd 81f0 	ldmia.w	sp!, {r4, r5, r6, r7, r8, pc}
 8003376:	2000      	movs	r0, #0
 8003378:	e8bd 81f0 	ldmia.w	sp!, {r4, r5, r6, r7, r8, pc}
 800337c:	2003      	movs	r0, #3
 800337e:	e8bd 81f0 	ldmia.w	sp!, {r4, r5, r6, r7, r8, pc}
	...

08003384 <HAL_SPI_Init>:
 8003384:	2800      	cmp	r0, #0
 8003386:	f000 8099 	beq.w	80034bc <HAL_SPI_Init+0x138>
 800338a:	b570      	push	{r4, r5, r6, lr}
 800338c:	4604      	mov	r4, r0
 800338e:	2300      	movs	r3, #0
 8003390:	6283      	str	r3, [r0, #40]	; 0x28
 8003392:	6805      	ldr	r5, [r0, #0]
 8003394:	4b4c      	ldr	r3, [pc, #304]	; (80034c8 <HAL_SPI_Init+0x144>)
 8003396:	4e4d      	ldr	r6, [pc, #308]	; (80034cc <HAL_SPI_Init+0x148>)
 8003398:	429d      	cmp	r5, r3
 800339a:	bf18      	it	ne
 800339c:	42b5      	cmpne	r5, r6
 800339e:	bf14      	ite	ne
 80033a0:	2601      	movne	r6, #1
 80033a2:	2600      	moveq	r6, #0
 80033a4:	d007      	beq.n	80033b6 <HAL_SPI_Init+0x32>
 80033a6:	f5a3 4374 	sub.w	r3, r3, #62464	; 0xf400
 80033aa:	429d      	cmp	r5, r3
 80033ac:	d003      	beq.n	80033b6 <HAL_SPI_Init+0x32>
 80033ae:	68c3      	ldr	r3, [r0, #12]
 80033b0:	2b0f      	cmp	r3, #15
 80033b2:	f200 8085 	bhi.w	80034c0 <HAL_SPI_Init+0x13c>
 80033b6:	4620      	mov	r0, r4
 80033b8:	f7ff ffb8 	bl	800332c <SPI_GetPacketSize>
 80033bc:	b126      	cbz	r6, 80033c8 <HAL_SPI_Init+0x44>
 80033be:	4b44      	ldr	r3, [pc, #272]	; (80034d0 <HAL_SPI_Init+0x14c>)
 80033c0:	429d      	cmp	r5, r3
 80033c2:	d001      	beq.n	80033c8 <HAL_SPI_Init+0x44>
 80033c4:	2808      	cmp	r0, #8
 80033c6:	d87d      	bhi.n	80034c4 <HAL_SPI_Init+0x140>
 80033c8:	4b40      	ldr	r3, [pc, #256]	; (80034cc <HAL_SPI_Init+0x148>)
 80033ca:	4a3f      	ldr	r2, [pc, #252]	; (80034c8 <HAL_SPI_Init+0x144>)
 80033cc:	429d      	cmp	r5, r3
 80033ce:	bf18      	it	ne
 80033d0:	4295      	cmpne	r5, r2
 80033d2:	d05c      	beq.n	800348e <HAL_SPI_Init+0x10a>
 80033d4:	f503 6380 	add.w	r3, r3, #1024	; 0x400
 80033d8:	429d      	cmp	r5, r3
 80033da:	d058      	beq.n	800348e <HAL_SPI_Init+0x10a>
 80033dc:	f894 3081 	ldrb.w	r3, [r4, #129]	; 0x81
 80033e0:	2b00      	cmp	r3, #0
 80033e2:	d058      	beq.n	8003496 <HAL_SPI_Init+0x112>
 80033e4:	2302      	movs	r3, #2
 80033e6:	f884 3081 	strb.w	r3, [r4, #129]	; 0x81
 80033ea:	6822      	ldr	r2, [r4, #0]
 80033ec:	6813      	ldr	r3, [r2, #0]
 80033ee:	f023 0301 	bic.w	r3, r3, #1
 80033f2:	6013      	str	r3, [r2, #0]
 80033f4:	69a3      	ldr	r3, [r4, #24]
 80033f6:	f1b3 6f80 	cmp.w	r3, #67108864	; 0x4000000
 80033fa:	d052      	beq.n	80034a2 <HAL_SPI_Init+0x11e>
 80033fc:	6822      	ldr	r2, [r4, #0]
 80033fe:	69e3      	ldr	r3, [r4, #28]
 8003400:	6aa1      	ldr	r1, [r4, #40]	; 0x28
 8003402:	430b      	orrs	r3, r1
 8003404:	6be1      	ldr	r1, [r4, #60]	; 0x3c
 8003406:	430b      	orrs	r3, r1
 8003408:	68e1      	ldr	r1, [r4, #12]
 800340a:	430b      	orrs	r3, r1
 800340c:	6093      	str	r3, [r2, #8]
 800340e:	6822      	ldr	r2, [r4, #0]
 8003410:	6b63      	ldr	r3, [r4, #52]	; 0x34
 8003412:	6a61      	ldr	r1, [r4, #36]	; 0x24
 8003414:	430b      	orrs	r3, r1
 8003416:	6ba1      	ldr	r1, [r4, #56]	; 0x38
 8003418:	430b      	orrs	r3, r1
 800341a:	69a1      	ldr	r1, [r4, #24]
 800341c:	430b      	orrs	r3, r1
 800341e:	6921      	ldr	r1, [r4, #16]
 8003420:	430b      	orrs	r3, r1
 8003422:	6961      	ldr	r1, [r4, #20]
 8003424:	430b      	orrs	r3, r1
 8003426:	6a21      	ldr	r1, [r4, #32]
 8003428:	430b      	orrs	r3, r1
 800342a:	6861      	ldr	r1, [r4, #4]
 800342c:	430b      	orrs	r3, r1
 800342e:	6ce1      	ldr	r1, [r4, #76]	; 0x4c
 8003430:	430b      	orrs	r3, r1
 8003432:	68a1      	ldr	r1, [r4, #8]
 8003434:	430b      	orrs	r3, r1
 8003436:	6ca1      	ldr	r1, [r4, #72]	; 0x48
 8003438:	430b      	orrs	r3, r1
 800343a:	6da1      	ldr	r1, [r4, #88]	; 0x58
 800343c:	430b      	orrs	r3, r1
 800343e:	60d3      	str	r3, [r2, #12]
 8003440:	6863      	ldr	r3, [r4, #4]
 8003442:	b96b      	cbnz	r3, 8003460 <HAL_SPI_Init+0xdc>
 8003444:	6822      	ldr	r2, [r4, #0]
 8003446:	6893      	ldr	r3, [r2, #8]
 8003448:	f423 53c0 	bic.w	r3, r3, #6144	; 0x1800
 800344c:	f443 6300 	orr.w	r3, r3, #2048	; 0x800
 8003450:	6093      	str	r3, [r2, #8]
 8003452:	6822      	ldr	r2, [r4, #0]
 8003454:	6893      	ldr	r3, [r2, #8]
 8003456:	f423 63c0 	bic.w	r3, r3, #1536	; 0x600
 800345a:	f443 6380 	orr.w	r3, r3, #1024	; 0x400
 800345e:	6093      	str	r3, [r2, #8]
 8003460:	6822      	ldr	r2, [r4, #0]
 8003462:	6d13      	ldr	r3, [r2, #80]	; 0x50
 8003464:	f023 0301 	bic.w	r3, r3, #1
 8003468:	6513      	str	r3, [r2, #80]	; 0x50
 800346a:	6863      	ldr	r3, [r4, #4]
 800346c:	f413 0f80 	tst.w	r3, #4194304	; 0x400000
 8003470:	d006      	beq.n	8003480 <HAL_SPI_Init+0xfc>
 8003472:	6822      	ldr	r2, [r4, #0]
 8003474:	68d3      	ldr	r3, [r2, #12]
 8003476:	f023 4300 	bic.w	r3, r3, #2147483648	; 0x80000000
 800347a:	6d61      	ldr	r1, [r4, #84]	; 0x54
 800347c:	430b      	orrs	r3, r1
 800347e:	60d3      	str	r3, [r2, #12]
 8003480:	2000      	movs	r0, #0
 8003482:	f8c4 0084 	str.w	r0, [r4, #132]	; 0x84
 8003486:	2301      	movs	r3, #1
 8003488:	f884 3081 	strb.w	r3, [r4, #129]	; 0x81
 800348c:	bd70      	pop	{r4, r5, r6, pc}
 800348e:	2810      	cmp	r0, #16
 8003490:	d9a4      	bls.n	80033dc <HAL_SPI_Init+0x58>
 8003492:	2001      	movs	r0, #1
 8003494:	bd70      	pop	{r4, r5, r6, pc}
 8003496:	f884 3080 	strb.w	r3, [r4, #128]	; 0x80
 800349a:	4620      	mov	r0, r4
 800349c:	f001 ff00 	bl	80052a0 <HAL_SPI_MspInit>
 80034a0:	e7a0      	b.n	80033e4 <HAL_SPI_Init+0x60>
 80034a2:	6863      	ldr	r3, [r4, #4]
 80034a4:	f5b3 0f80 	cmp.w	r3, #4194304	; 0x400000
 80034a8:	d1a8      	bne.n	80033fc <HAL_SPI_Init+0x78>
 80034aa:	6ba3      	ldr	r3, [r4, #56]	; 0x38
 80034ac:	2b00      	cmp	r3, #0
 80034ae:	d1a5      	bne.n	80033fc <HAL_SPI_Init+0x78>
 80034b0:	6822      	ldr	r2, [r4, #0]
 80034b2:	6813      	ldr	r3, [r2, #0]
 80034b4:	f443 5380 	orr.w	r3, r3, #4096	; 0x1000
 80034b8:	6013      	str	r3, [r2, #0]
 80034ba:	e79f      	b.n	80033fc <HAL_SPI_Init+0x78>
 80034bc:	2001      	movs	r0, #1
 80034be:	4770      	bx	lr
 80034c0:	2001      	movs	r0, #1
 80034c2:	bd70      	pop	{r4, r5, r6, pc}
 80034c4:	2001      	movs	r0, #1
 80034c6:	bd70      	pop	{r4, r5, r6, pc}
 80034c8:	40013000 	.word	0x40013000
 80034cc:	40003800 	.word	0x40003800
 80034d0:	40003c00 	.word	0x40003c00

080034d4 <HAL_SPI_Transmit>:
 80034d4:	e92d 41f0 	stmdb	sp!, {r4, r5, r6, r7, r8, lr}
 80034d8:	b082      	sub	sp, #8
 80034da:	f890 4080 	ldrb.w	r4, [r0, #128]	; 0x80
 80034de:	2c01      	cmp	r4, #1
 80034e0:	d103      	bne.n	80034ea <HAL_SPI_Transmit+0x16>
 80034e2:	2002      	movs	r0, #2
 80034e4:	b002      	add	sp, #8
 80034e6:	e8bd 81f0 	ldmia.w	sp!, {r4, r5, r6, r7, r8, pc}
 80034ea:	461d      	mov	r5, r3
 80034ec:	4617      	mov	r7, r2
 80034ee:	460e      	mov	r6, r1
 80034f0:	4604      	mov	r4, r0
 80034f2:	2301      	movs	r3, #1
 80034f4:	f880 3080 	strb.w	r3, [r0, #128]	; 0x80
 80034f8:	f7fd f8b0 	bl	800065c <HAL_GetTick>
 80034fc:	4680      	mov	r8, r0
 80034fe:	f894 3081 	ldrb.w	r3, [r4, #129]	; 0x81
 8003502:	b2db      	uxtb	r3, r3
 8003504:	2b01      	cmp	r3, #1
 8003506:	d004      	beq.n	8003512 <HAL_SPI_Transmit+0x3e>
 8003508:	2300      	movs	r3, #0
 800350a:	f884 3080 	strb.w	r3, [r4, #128]	; 0x80
 800350e:	2002      	movs	r0, #2
 8003510:	e7e8      	b.n	80034e4 <HAL_SPI_Transmit+0x10>
 8003512:	2f00      	cmp	r7, #0
 8003514:	bf18      	it	ne
 8003516:	2e00      	cmpne	r6, #0
 8003518:	d02a      	beq.n	8003570 <HAL_SPI_Transmit+0x9c>
 800351a:	2303      	movs	r3, #3
 800351c:	f884 3081 	strb.w	r3, [r4, #129]	; 0x81
 8003520:	2300      	movs	r3, #0
 8003522:	f8c4 3084 	str.w	r3, [r4, #132]	; 0x84
 8003526:	65e6      	str	r6, [r4, #92]	; 0x5c
 8003528:	f8a4 7060 	strh.w	r7, [r4, #96]	; 0x60
 800352c:	f8a4 7062 	strh.w	r7, [r4, #98]	; 0x62
 8003530:	6663      	str	r3, [r4, #100]	; 0x64
 8003532:	f8a4 3068 	strh.w	r3, [r4, #104]	; 0x68
 8003536:	f8a4 306a 	strh.w	r3, [r4, #106]	; 0x6a
 800353a:	6763      	str	r3, [r4, #116]	; 0x74
 800353c:	6723      	str	r3, [r4, #112]	; 0x70
 800353e:	68a3      	ldr	r3, [r4, #8]
 8003540:	f5b3 2fc0 	cmp.w	r3, #393216	; 0x60000
 8003544:	d019      	beq.n	800357a <HAL_SPI_Transmit+0xa6>
 8003546:	6823      	ldr	r3, [r4, #0]
 8003548:	6859      	ldr	r1, [r3, #4]
 800354a:	4a8d      	ldr	r2, [pc, #564]	; (8003780 <HAL_SPI_Transmit+0x2ac>)
 800354c:	400a      	ands	r2, r1
 800354e:	433a      	orrs	r2, r7
 8003550:	605a      	str	r2, [r3, #4]
 8003552:	6822      	ldr	r2, [r4, #0]
 8003554:	6813      	ldr	r3, [r2, #0]
 8003556:	f043 0301 	orr.w	r3, r3, #1
 800355a:	6013      	str	r3, [r2, #0]
 800355c:	6863      	ldr	r3, [r4, #4]
 800355e:	f5b3 0f80 	cmp.w	r3, #4194304	; 0x400000
 8003562:	d010      	beq.n	8003586 <HAL_SPI_Transmit+0xb2>
 8003564:	68e3      	ldr	r3, [r4, #12]
 8003566:	2b0f      	cmp	r3, #15
 8003568:	d81d      	bhi.n	80035a6 <HAL_SPI_Transmit+0xd2>
 800356a:	2b07      	cmp	r3, #7
 800356c:	d851      	bhi.n	8003612 <HAL_SPI_Transmit+0x13e>
 800356e:	e0b9      	b.n	80036e4 <HAL_SPI_Transmit+0x210>
 8003570:	2300      	movs	r3, #0
 8003572:	f884 3080 	strb.w	r3, [r4, #128]	; 0x80
 8003576:	2001      	movs	r0, #1
 8003578:	e7b4      	b.n	80034e4 <HAL_SPI_Transmit+0x10>
 800357a:	6822      	ldr	r2, [r4, #0]
 800357c:	6813      	ldr	r3, [r2, #0]
 800357e:	f443 6300 	orr.w	r3, r3, #2048	; 0x800
 8003582:	6013      	str	r3, [r2, #0]
 8003584:	e7df      	b.n	8003546 <HAL_SPI_Transmit+0x72>
 8003586:	6822      	ldr	r2, [r4, #0]
 8003588:	6813      	ldr	r3, [r2, #0]
 800358a:	f443 7300 	orr.w	r3, r3, #512	; 0x200
 800358e:	6013      	str	r3, [r2, #0]
 8003590:	e7e8      	b.n	8003564 <HAL_SPI_Transmit+0x90>
 8003592:	b30d      	cbz	r5, 80035d8 <HAL_SPI_Transmit+0x104>
 8003594:	f1b5 3fff 	cmp.w	r5, #4294967295	; 0xffffffff
 8003598:	d005      	beq.n	80035a6 <HAL_SPI_Transmit+0xd2>
 800359a:	f7fd f85f 	bl	800065c <HAL_GetTick>
 800359e:	eba0 0008 	sub.w	r0, r0, r8
 80035a2:	4285      	cmp	r5, r0
 80035a4:	d918      	bls.n	80035d8 <HAL_SPI_Transmit+0x104>
 80035a6:	f8b4 3062 	ldrh.w	r3, [r4, #98]	; 0x62
 80035aa:	b29b      	uxth	r3, r3
 80035ac:	2b00      	cmp	r3, #0
 80035ae:	f000 80c8 	beq.w	8003742 <HAL_SPI_Transmit+0x26e>
 80035b2:	6823      	ldr	r3, [r4, #0]
 80035b4:	695a      	ldr	r2, [r3, #20]
 80035b6:	f012 0f02 	tst.w	r2, #2
 80035ba:	d0ea      	beq.n	8003592 <HAL_SPI_Transmit+0xbe>
 80035bc:	6de2      	ldr	r2, [r4, #92]	; 0x5c
 80035be:	6812      	ldr	r2, [r2, #0]
 80035c0:	621a      	str	r2, [r3, #32]
 80035c2:	6de3      	ldr	r3, [r4, #92]	; 0x5c
 80035c4:	3304      	adds	r3, #4
 80035c6:	65e3      	str	r3, [r4, #92]	; 0x5c
 80035c8:	f8b4 3062 	ldrh.w	r3, [r4, #98]	; 0x62
 80035cc:	b29b      	uxth	r3, r3
 80035ce:	3b01      	subs	r3, #1
 80035d0:	b29b      	uxth	r3, r3
 80035d2:	f8a4 3062 	strh.w	r3, [r4, #98]	; 0x62
 80035d6:	e7e6      	b.n	80035a6 <HAL_SPI_Transmit+0xd2>
 80035d8:	4620      	mov	r0, r4
 80035da:	f7ff fe3f 	bl	800325c <SPI_CloseTransfer>
 80035de:	2300      	movs	r3, #0
 80035e0:	f884 3080 	strb.w	r3, [r4, #128]	; 0x80
 80035e4:	f8d4 3084 	ldr.w	r3, [r4, #132]	; 0x84
 80035e8:	f443 7380 	orr.w	r3, r3, #256	; 0x100
 80035ec:	f8c4 3084 	str.w	r3, [r4, #132]	; 0x84
 80035f0:	2001      	movs	r0, #1
 80035f2:	f884 0081 	strb.w	r0, [r4, #129]	; 0x81
 80035f6:	e775      	b.n	80034e4 <HAL_SPI_Transmit+0x10>
 80035f8:	6de2      	ldr	r2, [r4, #92]	; 0x5c
 80035fa:	8812      	ldrh	r2, [r2, #0]
 80035fc:	841a      	strh	r2, [r3, #32]
 80035fe:	6de3      	ldr	r3, [r4, #92]	; 0x5c
 8003600:	3302      	adds	r3, #2
 8003602:	65e3      	str	r3, [r4, #92]	; 0x5c
 8003604:	f8b4 3062 	ldrh.w	r3, [r4, #98]	; 0x62
 8003608:	b29b      	uxth	r3, r3
 800360a:	3b01      	subs	r3, #1
 800360c:	b29b      	uxth	r3, r3
 800360e:	f8a4 3062 	strh.w	r3, [r4, #98]	; 0x62
 8003612:	f8b4 3062 	ldrh.w	r3, [r4, #98]	; 0x62
 8003616:	b29b      	uxth	r3, r3
 8003618:	2b00      	cmp	r3, #0
 800361a:	f000 8092 	beq.w	8003742 <HAL_SPI_Transmit+0x26e>
 800361e:	6823      	ldr	r3, [r4, #0]
 8003620:	695a      	ldr	r2, [r3, #20]
 8003622:	f012 0f02 	tst.w	r2, #2
 8003626:	d015      	beq.n	8003654 <HAL_SPI_Transmit+0x180>
 8003628:	f8b4 2062 	ldrh.w	r2, [r4, #98]	; 0x62
 800362c:	b292      	uxth	r2, r2
 800362e:	2a01      	cmp	r2, #1
 8003630:	d9e2      	bls.n	80035f8 <HAL_SPI_Transmit+0x124>
 8003632:	6be2      	ldr	r2, [r4, #60]	; 0x3c
 8003634:	2a00      	cmp	r2, #0
 8003636:	d0df      	beq.n	80035f8 <HAL_SPI_Transmit+0x124>
 8003638:	6de2      	ldr	r2, [r4, #92]	; 0x5c
 800363a:	6812      	ldr	r2, [r2, #0]
 800363c:	621a      	str	r2, [r3, #32]
 800363e:	6de3      	ldr	r3, [r4, #92]	; 0x5c
 8003640:	3304      	adds	r3, #4
 8003642:	65e3      	str	r3, [r4, #92]	; 0x5c
 8003644:	f8b4 3062 	ldrh.w	r3, [r4, #98]	; 0x62
 8003648:	b29b      	uxth	r3, r3
 800364a:	3b02      	subs	r3, #2
 800364c:	b29b      	uxth	r3, r3
 800364e:	f8a4 3062 	strh.w	r3, [r4, #98]	; 0x62
 8003652:	e7de      	b.n	8003612 <HAL_SPI_Transmit+0x13e>
 8003654:	b145      	cbz	r5, 8003668 <HAL_SPI_Transmit+0x194>
 8003656:	f1b5 3fff 	cmp.w	r5, #4294967295	; 0xffffffff
 800365a:	d0da      	beq.n	8003612 <HAL_SPI_Transmit+0x13e>
 800365c:	f7fc fffe 	bl	800065c <HAL_GetTick>
 8003660:	eba0 0008 	sub.w	r0, r0, r8
 8003664:	4285      	cmp	r5, r0
 8003666:	d8d4      	bhi.n	8003612 <HAL_SPI_Transmit+0x13e>
 8003668:	4620      	mov	r0, r4
 800366a:	f7ff fdf7 	bl	800325c <SPI_CloseTransfer>
 800366e:	2300      	movs	r3, #0
 8003670:	f884 3080 	strb.w	r3, [r4, #128]	; 0x80
 8003674:	f8d4 3084 	ldr.w	r3, [r4, #132]	; 0x84
 8003678:	f443 7380 	orr.w	r3, r3, #256	; 0x100
 800367c:	f8c4 3084 	str.w	r3, [r4, #132]	; 0x84
 8003680:	2001      	movs	r0, #1
 8003682:	f884 0081 	strb.w	r0, [r4, #129]	; 0x81
 8003686:	e72d      	b.n	80034e4 <HAL_SPI_Transmit+0x10>
 8003688:	f8b4 2062 	ldrh.w	r2, [r4, #98]	; 0x62
 800368c:	b292      	uxth	r2, r2
 800368e:	2a01      	cmp	r2, #1
 8003690:	d90f      	bls.n	80036b2 <HAL_SPI_Transmit+0x1de>
 8003692:	6be2      	ldr	r2, [r4, #60]	; 0x3c
 8003694:	b16a      	cbz	r2, 80036b2 <HAL_SPI_Transmit+0x1de>
 8003696:	6de2      	ldr	r2, [r4, #92]	; 0x5c
 8003698:	8812      	ldrh	r2, [r2, #0]
 800369a:	841a      	strh	r2, [r3, #32]
 800369c:	6de3      	ldr	r3, [r4, #92]	; 0x5c
 800369e:	3302      	adds	r3, #2
 80036a0:	65e3      	str	r3, [r4, #92]	; 0x5c
 80036a2:	f8b4 3062 	ldrh.w	r3, [r4, #98]	; 0x62
 80036a6:	b29b      	uxth	r3, r3
 80036a8:	3b02      	subs	r3, #2
 80036aa:	b29b      	uxth	r3, r3
 80036ac:	f8a4 3062 	strh.w	r3, [r4, #98]	; 0x62
 80036b0:	e018      	b.n	80036e4 <HAL_SPI_Transmit+0x210>
 80036b2:	6de2      	ldr	r2, [r4, #92]	; 0x5c
 80036b4:	7812      	ldrb	r2, [r2, #0]
 80036b6:	f883 2020 	strb.w	r2, [r3, #32]
 80036ba:	6de3      	ldr	r3, [r4, #92]	; 0x5c
 80036bc:	3301      	adds	r3, #1
 80036be:	65e3      	str	r3, [r4, #92]	; 0x5c
 80036c0:	f8b4 3062 	ldrh.w	r3, [r4, #98]	; 0x62
 80036c4:	b29b      	uxth	r3, r3
 80036c6:	3b01      	subs	r3, #1
 80036c8:	b29b      	uxth	r3, r3
 80036ca:	f8a4 3062 	strh.w	r3, [r4, #98]	; 0x62
 80036ce:	e009      	b.n	80036e4 <HAL_SPI_Transmit+0x210>
 80036d0:	b33d      	cbz	r5, 8003722 <HAL_SPI_Transmit+0x24e>
 80036d2:	f1b5 3fff 	cmp.w	r5, #4294967295	; 0xffffffff
 80036d6:	d005      	beq.n	80036e4 <HAL_SPI_Transmit+0x210>
 80036d8:	f7fc ffc0 	bl	800065c <HAL_GetTick>
 80036dc:	eba0 0008 	sub.w	r0, r0, r8
 80036e0:	4285      	cmp	r5, r0
 80036e2:	d91e      	bls.n	8003722 <HAL_SPI_Transmit+0x24e>
 80036e4:	f8b4 3062 	ldrh.w	r3, [r4, #98]	; 0x62
 80036e8:	b29b      	uxth	r3, r3
 80036ea:	b353      	cbz	r3, 8003742 <HAL_SPI_Transmit+0x26e>
 80036ec:	6823      	ldr	r3, [r4, #0]
 80036ee:	695a      	ldr	r2, [r3, #20]
 80036f0:	f012 0f02 	tst.w	r2, #2
 80036f4:	d0ec      	beq.n	80036d0 <HAL_SPI_Transmit+0x1fc>
 80036f6:	f8b4 2062 	ldrh.w	r2, [r4, #98]	; 0x62
 80036fa:	b292      	uxth	r2, r2
 80036fc:	2a03      	cmp	r2, #3
 80036fe:	d9c3      	bls.n	8003688 <HAL_SPI_Transmit+0x1b4>
 8003700:	6be2      	ldr	r2, [r4, #60]	; 0x3c
 8003702:	2a40      	cmp	r2, #64	; 0x40
 8003704:	d9c0      	bls.n	8003688 <HAL_SPI_Transmit+0x1b4>
 8003706:	6de2      	ldr	r2, [r4, #92]	; 0x5c
 8003708:	6812      	ldr	r2, [r2, #0]
 800370a:	621a      	str	r2, [r3, #32]
 800370c:	6de3      	ldr	r3, [r4, #92]	; 0x5c
 800370e:	3304      	adds	r3, #4
 8003710:	65e3      	str	r3, [r4, #92]	; 0x5c
 8003712:	f8b4 3062 	ldrh.w	r3, [r4, #98]	; 0x62
 8003716:	b29b      	uxth	r3, r3
 8003718:	3b04      	subs	r3, #4
 800371a:	b29b      	uxth	r3, r3
 800371c:	f8a4 3062 	strh.w	r3, [r4, #98]	; 0x62
 8003720:	e7e0      	b.n	80036e4 <HAL_SPI_Transmit+0x210>
 8003722:	4620      	mov	r0, r4
 8003724:	f7ff fd9a 	bl	800325c <SPI_CloseTransfer>
 8003728:	2300      	movs	r3, #0
 800372a:	f884 3080 	strb.w	r3, [r4, #128]	; 0x80
 800372e:	f8d4 3084 	ldr.w	r3, [r4, #132]	; 0x84
 8003732:	f443 7380 	orr.w	r3, r3, #256	; 0x100
 8003736:	f8c4 3084 	str.w	r3, [r4, #132]	; 0x84
 800373a:	2001      	movs	r0, #1
 800373c:	f884 0081 	strb.w	r0, [r4, #129]	; 0x81
 8003740:	e6d0      	b.n	80034e4 <HAL_SPI_Transmit+0x10>
 8003742:	9500      	str	r5, [sp, #0]
 8003744:	4643      	mov	r3, r8
 8003746:	2200      	movs	r2, #0
 8003748:	2108      	movs	r1, #8
 800374a:	4620      	mov	r0, r4
 800374c:	f7ff fdf6 	bl	800333c <SPI_WaitOnFlagUntilTimeout>
 8003750:	b128      	cbz	r0, 800375e <HAL_SPI_Transmit+0x28a>
 8003752:	f8d4 3084 	ldr.w	r3, [r4, #132]	; 0x84
 8003756:	f043 0320 	orr.w	r3, r3, #32
 800375a:	f8c4 3084 	str.w	r3, [r4, #132]	; 0x84
 800375e:	4620      	mov	r0, r4
 8003760:	f7ff fd7c 	bl	800325c <SPI_CloseTransfer>
 8003764:	2300      	movs	r3, #0
 8003766:	f884 3080 	strb.w	r3, [r4, #128]	; 0x80
 800376a:	2301      	movs	r3, #1
 800376c:	f884 3081 	strb.w	r3, [r4, #129]	; 0x81
 8003770:	f8d4 3084 	ldr.w	r3, [r4, #132]	; 0x84
 8003774:	b90b      	cbnz	r3, 800377a <HAL_SPI_Transmit+0x2a6>
 8003776:	2000      	movs	r0, #0
 8003778:	e6b4      	b.n	80034e4 <HAL_SPI_Transmit+0x10>
 800377a:	2001      	movs	r0, #1
 800377c:	e6b2      	b.n	80034e4 <HAL_SPI_Transmit+0x10>
 800377e:	bf00      	nop
 8003780:	ffff0000 	.word	0xffff0000

08003784 <HAL_SPI_Transmit_DMA>:
 8003784:	b538      	push	{r3, r4, r5, lr}
 8003786:	f890 3080 	ldrb.w	r3, [r0, #128]	; 0x80
 800378a:	2b01      	cmp	r3, #1
 800378c:	f000 80c0 	beq.w	8003910 <HAL_SPI_Transmit_DMA+0x18c>
 8003790:	2301      	movs	r3, #1
 8003792:	f880 3080 	strb.w	r3, [r0, #128]	; 0x80
 8003796:	f890 3081 	ldrb.w	r3, [r0, #129]	; 0x81
 800379a:	b2db      	uxtb	r3, r3
 800379c:	2b01      	cmp	r3, #1
 800379e:	d004      	beq.n	80037aa <HAL_SPI_Transmit_DMA+0x26>
 80037a0:	2300      	movs	r3, #0
 80037a2:	f880 3080 	strb.w	r3, [r0, #128]	; 0x80
 80037a6:	2002      	movs	r0, #2
 80037a8:	bd38      	pop	{r3, r4, r5, pc}
 80037aa:	2a00      	cmp	r2, #0
 80037ac:	bf18      	it	ne
 80037ae:	2900      	cmpne	r1, #0
 80037b0:	d022      	beq.n	80037f8 <HAL_SPI_Transmit_DMA+0x74>
 80037b2:	2303      	movs	r3, #3
 80037b4:	f880 3081 	strb.w	r3, [r0, #129]	; 0x81
 80037b8:	2300      	movs	r3, #0
 80037ba:	f8c0 3084 	str.w	r3, [r0, #132]	; 0x84
 80037be:	65c1      	str	r1, [r0, #92]	; 0x5c
 80037c0:	f8a0 2060 	strh.w	r2, [r0, #96]	; 0x60
 80037c4:	f8a0 2062 	strh.w	r2, [r0, #98]	; 0x62
 80037c8:	6643      	str	r3, [r0, #100]	; 0x64
 80037ca:	6743      	str	r3, [r0, #116]	; 0x74
 80037cc:	6703      	str	r3, [r0, #112]	; 0x70
 80037ce:	f8a0 3068 	strh.w	r3, [r0, #104]	; 0x68
 80037d2:	f8a0 306a 	strh.w	r3, [r0, #106]	; 0x6a
 80037d6:	6883      	ldr	r3, [r0, #8]
 80037d8:	f5b3 2fc0 	cmp.w	r3, #393216	; 0x60000
 80037dc:	d011      	beq.n	8003802 <HAL_SPI_Transmit_DMA+0x7e>
 80037de:	68c3      	ldr	r3, [r0, #12]
 80037e0:	2b0f      	cmp	r3, #15
 80037e2:	d914      	bls.n	800380e <HAL_SPI_Transmit_DMA+0x8a>
 80037e4:	6fc1      	ldr	r1, [r0, #124]	; 0x7c
 80037e6:	6989      	ldr	r1, [r1, #24]
 80037e8:	f5b1 4f80 	cmp.w	r1, #16384	; 0x4000
 80037ec:	d00f      	beq.n	800380e <HAL_SPI_Transmit_DMA+0x8a>
 80037ee:	2300      	movs	r3, #0
 80037f0:	f880 3080 	strb.w	r3, [r0, #128]	; 0x80
 80037f4:	2001      	movs	r0, #1
 80037f6:	bd38      	pop	{r3, r4, r5, pc}
 80037f8:	2300      	movs	r3, #0
 80037fa:	f880 3080 	strb.w	r3, [r0, #128]	; 0x80
 80037fe:	2001      	movs	r0, #1
 8003800:	bd38      	pop	{r3, r4, r5, pc}
 8003802:	6801      	ldr	r1, [r0, #0]
 8003804:	680b      	ldr	r3, [r1, #0]
 8003806:	f443 6300 	orr.w	r3, r3, #2048	; 0x800
 800380a:	600b      	str	r3, [r1, #0]
 800380c:	e7e7      	b.n	80037de <HAL_SPI_Transmit_DMA+0x5a>
 800380e:	2b07      	cmp	r3, #7
 8003810:	d907      	bls.n	8003822 <HAL_SPI_Transmit_DMA+0x9e>
 8003812:	6fc1      	ldr	r1, [r0, #124]	; 0x7c
 8003814:	6989      	ldr	r1, [r1, #24]
 8003816:	f5b1 5f00 	cmp.w	r1, #8192	; 0x2000
 800381a:	bf18      	it	ne
 800381c:	f5b1 4f80 	cmpne.w	r1, #16384	; 0x4000
 8003820:	d1e5      	bne.n	80037ee <HAL_SPI_Transmit_DMA+0x6a>
 8003822:	2b07      	cmp	r3, #7
 8003824:	d858      	bhi.n	80038d8 <HAL_SPI_Transmit_DMA+0x154>
 8003826:	6f83      	ldr	r3, [r0, #120]	; 0x78
 8003828:	6999      	ldr	r1, [r3, #24]
 800382a:	f5b1 5f00 	cmp.w	r1, #8192	; 0x2000
 800382e:	d041      	beq.n	80038b4 <HAL_SPI_Transmit_DMA+0x130>
 8003830:	699b      	ldr	r3, [r3, #24]
 8003832:	f5b3 4f80 	cmp.w	r3, #16384	; 0x4000
 8003836:	d046      	beq.n	80038c6 <HAL_SPI_Transmit_DMA+0x142>
 8003838:	4615      	mov	r5, r2
 800383a:	4604      	mov	r4, r0
 800383c:	6f83      	ldr	r3, [r0, #120]	; 0x78
 800383e:	4a35      	ldr	r2, [pc, #212]	; (8003914 <HAL_SPI_Transmit_DMA+0x190>)
 8003840:	641a      	str	r2, [r3, #64]	; 0x40
 8003842:	6f83      	ldr	r3, [r0, #120]	; 0x78
 8003844:	4a34      	ldr	r2, [pc, #208]	; (8003918 <HAL_SPI_Transmit_DMA+0x194>)
 8003846:	63da      	str	r2, [r3, #60]	; 0x3c
 8003848:	6f83      	ldr	r3, [r0, #120]	; 0x78
 800384a:	4a34      	ldr	r2, [pc, #208]	; (800391c <HAL_SPI_Transmit_DMA+0x198>)
 800384c:	64da      	str	r2, [r3, #76]	; 0x4c
 800384e:	6f83      	ldr	r3, [r0, #120]	; 0x78
 8003850:	2200      	movs	r2, #0
 8003852:	651a      	str	r2, [r3, #80]	; 0x50
 8003854:	6802      	ldr	r2, [r0, #0]
 8003856:	6893      	ldr	r3, [r2, #8]
 8003858:	f423 4300 	bic.w	r3, r3, #32768	; 0x8000
 800385c:	6093      	str	r3, [r2, #8]
 800385e:	6802      	ldr	r2, [r0, #0]
 8003860:	f8b0 3062 	ldrh.w	r3, [r0, #98]	; 0x62
 8003864:	b29b      	uxth	r3, r3
 8003866:	3220      	adds	r2, #32
 8003868:	6dc1      	ldr	r1, [r0, #92]	; 0x5c
 800386a:	6f80      	ldr	r0, [r0, #120]	; 0x78
 800386c:	f7fd f980 	bl	8000b70 <HAL_DMA_Start_IT>
 8003870:	6fa3      	ldr	r3, [r4, #120]	; 0x78
 8003872:	69db      	ldr	r3, [r3, #28]
 8003874:	f5b3 7f80 	cmp.w	r3, #256	; 0x100
 8003878:	d03e      	beq.n	80038f8 <HAL_SPI_Transmit_DMA+0x174>
 800387a:	6823      	ldr	r3, [r4, #0]
 800387c:	6859      	ldr	r1, [r3, #4]
 800387e:	4a28      	ldr	r2, [pc, #160]	; (8003920 <HAL_SPI_Transmit_DMA+0x19c>)
 8003880:	400a      	ands	r2, r1
 8003882:	432a      	orrs	r2, r5
 8003884:	605a      	str	r2, [r3, #4]
 8003886:	6822      	ldr	r2, [r4, #0]
 8003888:	6893      	ldr	r3, [r2, #8]
 800388a:	f443 4300 	orr.w	r3, r3, #32768	; 0x8000
 800388e:	6093      	str	r3, [r2, #8]
 8003890:	6822      	ldr	r2, [r4, #0]
 8003892:	6913      	ldr	r3, [r2, #16]
 8003894:	f443 7348 	orr.w	r3, r3, #800	; 0x320
 8003898:	6113      	str	r3, [r2, #16]
 800389a:	6822      	ldr	r2, [r4, #0]
 800389c:	6813      	ldr	r3, [r2, #0]
 800389e:	f043 0301 	orr.w	r3, r3, #1
 80038a2:	6013      	str	r3, [r2, #0]
 80038a4:	6863      	ldr	r3, [r4, #4]
 80038a6:	f5b3 0f80 	cmp.w	r3, #4194304	; 0x400000
 80038aa:	d02b      	beq.n	8003904 <HAL_SPI_Transmit_DMA+0x180>
 80038ac:	2000      	movs	r0, #0
 80038ae:	f884 0080 	strb.w	r0, [r4, #128]	; 0x80
 80038b2:	bd38      	pop	{r3, r4, r5, pc}
 80038b4:	f8b0 1062 	ldrh.w	r1, [r0, #98]	; 0x62
 80038b8:	b289      	uxth	r1, r1
 80038ba:	3101      	adds	r1, #1
 80038bc:	f3c1 014f 	ubfx	r1, r1, #1, #16
 80038c0:	f8a0 1062 	strh.w	r1, [r0, #98]	; 0x62
 80038c4:	e7b4      	b.n	8003830 <HAL_SPI_Transmit_DMA+0xac>
 80038c6:	f8b0 3062 	ldrh.w	r3, [r0, #98]	; 0x62
 80038ca:	b29b      	uxth	r3, r3
 80038cc:	3303      	adds	r3, #3
 80038ce:	f3c3 038f 	ubfx	r3, r3, #2, #16
 80038d2:	f8a0 3062 	strh.w	r3, [r0, #98]	; 0x62
 80038d6:	e7af      	b.n	8003838 <HAL_SPI_Transmit_DMA+0xb4>
 80038d8:	2b0f      	cmp	r3, #15
 80038da:	d8ad      	bhi.n	8003838 <HAL_SPI_Transmit_DMA+0xb4>
 80038dc:	6f83      	ldr	r3, [r0, #120]	; 0x78
 80038de:	699b      	ldr	r3, [r3, #24]
 80038e0:	f5b3 4f80 	cmp.w	r3, #16384	; 0x4000
 80038e4:	d1a8      	bne.n	8003838 <HAL_SPI_Transmit_DMA+0xb4>
 80038e6:	f8b0 3062 	ldrh.w	r3, [r0, #98]	; 0x62
 80038ea:	b29b      	uxth	r3, r3
 80038ec:	3301      	adds	r3, #1
 80038ee:	f3c3 034f 	ubfx	r3, r3, #1, #16
 80038f2:	f8a0 3062 	strh.w	r3, [r0, #98]	; 0x62
 80038f6:	e79f      	b.n	8003838 <HAL_SPI_Transmit_DMA+0xb4>
 80038f8:	6822      	ldr	r2, [r4, #0]
 80038fa:	6851      	ldr	r1, [r2, #4]
 80038fc:	4b08      	ldr	r3, [pc, #32]	; (8003920 <HAL_SPI_Transmit_DMA+0x19c>)
 80038fe:	400b      	ands	r3, r1
 8003900:	6053      	str	r3, [r2, #4]
 8003902:	e7c0      	b.n	8003886 <HAL_SPI_Transmit_DMA+0x102>
 8003904:	6822      	ldr	r2, [r4, #0]
 8003906:	6813      	ldr	r3, [r2, #0]
 8003908:	f443 7300 	orr.w	r3, r3, #512	; 0x200
 800390c:	6013      	str	r3, [r2, #0]
 800390e:	e7cd      	b.n	80038ac <HAL_SPI_Transmit_DMA+0x128>
 8003910:	2002      	movs	r0, #2
 8003912:	bd38      	pop	{r3, r4, r5, pc}
 8003914:	08003957 	.word	0x08003957
 8003918:	08003927 	.word	0x08003927
 800391c:	08003963 	.word	0x08003963
 8003920:	ffff0000 	.word	0xffff0000

08003924 <HAL_SPI_TxCpltCallback>:
 8003924:	4770      	bx	lr

08003926 <SPI_DMATransmitCplt>:
 8003926:	b508      	push	{r3, lr}
 8003928:	6b80      	ldr	r0, [r0, #56]	; 0x38
 800392a:	f890 3081 	ldrb.w	r3, [r0, #129]	; 0x81
 800392e:	b2db      	uxtb	r3, r3
 8003930:	2b07      	cmp	r3, #7
 8003932:	d009      	beq.n	8003948 <SPI_DMATransmitCplt+0x22>
 8003934:	6f83      	ldr	r3, [r0, #120]	; 0x78
 8003936:	69db      	ldr	r3, [r3, #28]
 8003938:	f5b3 7f80 	cmp.w	r3, #256	; 0x100
 800393c:	d005      	beq.n	800394a <SPI_DMATransmitCplt+0x24>
 800393e:	6802      	ldr	r2, [r0, #0]
 8003940:	6913      	ldr	r3, [r2, #16]
 8003942:	f043 0308 	orr.w	r3, r3, #8
 8003946:	6113      	str	r3, [r2, #16]
 8003948:	bd08      	pop	{r3, pc}
 800394a:	f7ff ffeb 	bl	8003924 <HAL_SPI_TxCpltCallback>
 800394e:	bd08      	pop	{r3, pc}

08003950 <HAL_SPI_RxCpltCallback>:
 8003950:	4770      	bx	lr

08003952 <HAL_SPI_TxRxCpltCallback>:
 8003952:	4770      	bx	lr

08003954 <HAL_SPI_TxHalfCpltCallback>:
 8003954:	4770      	bx	lr

08003956 <SPI_DMAHalfTransmitCplt>:
 8003956:	b508      	push	{r3, lr}
 8003958:	6b80      	ldr	r0, [r0, #56]	; 0x38
 800395a:	f7ff fffb 	bl	8003954 <HAL_SPI_TxHalfCpltCallback>
 800395e:	bd08      	pop	{r3, pc}

08003960 <HAL_SPI_ErrorCallback>:
 8003960:	4770      	bx	lr

08003962 <SPI_DMAError>:
 8003962:	b510      	push	{r4, lr}
 8003964:	6b84      	ldr	r4, [r0, #56]	; 0x38
 8003966:	f7fd fb7b 	bl	8001060 <HAL_DMA_GetError>
 800396a:	2802      	cmp	r0, #2
 800396c:	d00e      	beq.n	800398c <SPI_DMAError+0x2a>
 800396e:	4620      	mov	r0, r4
 8003970:	f7ff fc74 	bl	800325c <SPI_CloseTransfer>
 8003974:	f8d4 3084 	ldr.w	r3, [r4, #132]	; 0x84
 8003978:	f043 0310 	orr.w	r3, r3, #16
 800397c:	f8c4 3084 	str.w	r3, [r4, #132]	; 0x84
 8003980:	2301      	movs	r3, #1
 8003982:	f884 3081 	strb.w	r3, [r4, #129]	; 0x81
 8003986:	4620      	mov	r0, r4
 8003988:	f7ff ffea 	bl	8003960 <HAL_SPI_ErrorCallback>
 800398c:	bd10      	pop	{r4, pc}
	...

08003990 <HAL_SPI_IRQHandler>:
 8003990:	e92d 43f8 	stmdb	sp!, {r3, r4, r5, r6, r7, r8, r9, lr}
 8003994:	4604      	mov	r4, r0
 8003996:	6803      	ldr	r3, [r0, #0]
 8003998:	691f      	ldr	r7, [r3, #16]
 800399a:	f8d3 8014 	ldr.w	r8, [r3, #20]
 800399e:	ea07 0608 	and.w	r6, r7, r8
 80039a2:	f8d3 9008 	ldr.w	r9, [r3, #8]
 80039a6:	f890 5081 	ldrb.w	r5, [r0, #129]	; 0x81
 80039aa:	b2ed      	uxtb	r5, r5
 80039ac:	f006 0341 	and.w	r3, r6, #65	; 0x41
 80039b0:	2b01      	cmp	r3, #1
 80039b2:	d041      	beq.n	8003a38 <HAL_SPI_IRQHandler+0xa8>
 80039b4:	2300      	movs	r3, #0
 80039b6:	f006 0222 	and.w	r2, r6, #34	; 0x22
 80039ba:	2a02      	cmp	r2, #2
 80039bc:	d040      	beq.n	8003a40 <HAL_SPI_IRQHandler+0xb0>
 80039be:	2b00      	cmp	r3, #0
 80039c0:	d138      	bne.n	8003a34 <HAL_SPI_IRQHandler+0xa4>
 80039c2:	f016 0f08 	tst.w	r6, #8
 80039c6:	d07d      	beq.n	8003ac4 <HAL_SPI_IRQHandler+0x134>
 80039c8:	6822      	ldr	r2, [r4, #0]
 80039ca:	6993      	ldr	r3, [r2, #24]
 80039cc:	f043 0308 	orr.w	r3, r3, #8
 80039d0:	6193      	str	r3, [r2, #24]
 80039d2:	6822      	ldr	r2, [r4, #0]
 80039d4:	6993      	ldr	r3, [r2, #24]
 80039d6:	f043 0310 	orr.w	r3, r3, #16
 80039da:	6193      	str	r3, [r2, #24]
 80039dc:	6822      	ldr	r2, [r4, #0]
 80039de:	6993      	ldr	r3, [r2, #24]
 80039e0:	f443 6300 	orr.w	r3, r3, #2048	; 0x800
 80039e4:	6193      	str	r3, [r2, #24]
 80039e6:	6822      	ldr	r2, [r4, #0]
 80039e8:	6913      	ldr	r3, [r2, #16]
 80039ea:	f023 0308 	bic.w	r3, r3, #8
 80039ee:	6113      	str	r3, [r2, #16]
 80039f0:	f419 4f40 	tst.w	r9, #49152	; 0xc000
 80039f4:	d009      	beq.n	8003a0a <HAL_SPI_IRQHandler+0x7a>
 80039f6:	2d04      	cmp	r5, #4
 80039f8:	d002      	beq.n	8003a00 <HAL_SPI_IRQHandler+0x70>
 80039fa:	6fa3      	ldr	r3, [r4, #120]	; 0x78
 80039fc:	69db      	ldr	r3, [r3, #28]
 80039fe:	b123      	cbz	r3, 8003a0a <HAL_SPI_IRQHandler+0x7a>
 8003a00:	2d03      	cmp	r5, #3
 8003a02:	d011      	beq.n	8003a28 <HAL_SPI_IRQHandler+0x98>
 8003a04:	6fe3      	ldr	r3, [r4, #124]	; 0x7c
 8003a06:	69db      	ldr	r3, [r3, #28]
 8003a08:	b973      	cbnz	r3, 8003a28 <HAL_SPI_IRQHandler+0x98>
 8003a0a:	6823      	ldr	r3, [r4, #0]
 8003a0c:	689b      	ldr	r3, [r3, #8]
 8003a0e:	f413 4f40 	tst.w	r3, #49152	; 0xc000
 8003a12:	d02a      	beq.n	8003a6a <HAL_SPI_IRQHandler+0xda>
 8003a14:	4620      	mov	r0, r4
 8003a16:	f7ff fc21 	bl	800325c <SPI_CloseTransfer>
 8003a1a:	2301      	movs	r3, #1
 8003a1c:	f884 3081 	strb.w	r3, [r4, #129]	; 0x81
 8003a20:	f8d4 3084 	ldr.w	r3, [r4, #132]	; 0x84
 8003a24:	2b00      	cmp	r3, #0
 8003a26:	d139      	bne.n	8003a9c <HAL_SPI_IRQHandler+0x10c>
 8003a28:	2d05      	cmp	r5, #5
 8003a2a:	d03c      	beq.n	8003aa6 <HAL_SPI_IRQHandler+0x116>
 8003a2c:	2d04      	cmp	r5, #4
 8003a2e:	d03f      	beq.n	8003ab0 <HAL_SPI_IRQHandler+0x120>
 8003a30:	2d03      	cmp	r5, #3
 8003a32:	d042      	beq.n	8003aba <HAL_SPI_IRQHandler+0x12a>
 8003a34:	e8bd 83f8 	ldmia.w	sp!, {r3, r4, r5, r6, r7, r8, r9, pc}
 8003a38:	6f03      	ldr	r3, [r0, #112]	; 0x70
 8003a3a:	4798      	blx	r3
 8003a3c:	2301      	movs	r3, #1
 8003a3e:	e7ba      	b.n	80039b6 <HAL_SPI_IRQHandler+0x26>
 8003a40:	6f63      	ldr	r3, [r4, #116]	; 0x74
 8003a42:	4620      	mov	r0, r4
 8003a44:	4798      	blx	r3
 8003a46:	2301      	movs	r3, #1
 8003a48:	e7b9      	b.n	80039be <HAL_SPI_IRQHandler+0x2e>
 8003a4a:	2b07      	cmp	r3, #7
 8003a4c:	d91d      	bls.n	8003a8a <HAL_SPI_IRQHandler+0xfa>
 8003a4e:	6e63      	ldr	r3, [r4, #100]	; 0x64
 8003a50:	6822      	ldr	r2, [r4, #0]
 8003a52:	8e12      	ldrh	r2, [r2, #48]	; 0x30
 8003a54:	801a      	strh	r2, [r3, #0]
 8003a56:	6e63      	ldr	r3, [r4, #100]	; 0x64
 8003a58:	3302      	adds	r3, #2
 8003a5a:	6663      	str	r3, [r4, #100]	; 0x64
 8003a5c:	f8b4 306a 	ldrh.w	r3, [r4, #106]	; 0x6a
 8003a60:	b29b      	uxth	r3, r3
 8003a62:	3b01      	subs	r3, #1
 8003a64:	b29b      	uxth	r3, r3
 8003a66:	f8a4 306a 	strh.w	r3, [r4, #106]	; 0x6a
 8003a6a:	f8b4 306a 	ldrh.w	r3, [r4, #106]	; 0x6a
 8003a6e:	b29b      	uxth	r3, r3
 8003a70:	2b00      	cmp	r3, #0
 8003a72:	d0cf      	beq.n	8003a14 <HAL_SPI_IRQHandler+0x84>
 8003a74:	68e3      	ldr	r3, [r4, #12]
 8003a76:	2b0f      	cmp	r3, #15
 8003a78:	d9e7      	bls.n	8003a4a <HAL_SPI_IRQHandler+0xba>
 8003a7a:	6e63      	ldr	r3, [r4, #100]	; 0x64
 8003a7c:	6822      	ldr	r2, [r4, #0]
 8003a7e:	6b12      	ldr	r2, [r2, #48]	; 0x30
 8003a80:	601a      	str	r2, [r3, #0]
 8003a82:	6e63      	ldr	r3, [r4, #100]	; 0x64
 8003a84:	3304      	adds	r3, #4
 8003a86:	6663      	str	r3, [r4, #100]	; 0x64
 8003a88:	e7e8      	b.n	8003a5c <HAL_SPI_IRQHandler+0xcc>
 8003a8a:	6e63      	ldr	r3, [r4, #100]	; 0x64
 8003a8c:	6822      	ldr	r2, [r4, #0]
 8003a8e:	f892 2030 	ldrb.w	r2, [r2, #48]	; 0x30
 8003a92:	701a      	strb	r2, [r3, #0]
 8003a94:	6e63      	ldr	r3, [r4, #100]	; 0x64
 8003a96:	3301      	adds	r3, #1
 8003a98:	6663      	str	r3, [r4, #100]	; 0x64
 8003a9a:	e7df      	b.n	8003a5c <HAL_SPI_IRQHandler+0xcc>
 8003a9c:	4620      	mov	r0, r4
 8003a9e:	f7ff ff5f 	bl	8003960 <HAL_SPI_ErrorCallback>
 8003aa2:	e8bd 83f8 	ldmia.w	sp!, {r3, r4, r5, r6, r7, r8, r9, pc}
 8003aa6:	4620      	mov	r0, r4
 8003aa8:	f7ff ff53 	bl	8003952 <HAL_SPI_TxRxCpltCallback>
 8003aac:	e8bd 83f8 	ldmia.w	sp!, {r3, r4, r5, r6, r7, r8, r9, pc}
 8003ab0:	4620      	mov	r0, r4
 8003ab2:	f7ff ff4d 	bl	8003950 <HAL_SPI_RxCpltCallback>
 8003ab6:	e8bd 83f8 	ldmia.w	sp!, {r3, r4, r5, r6, r7, r8, r9, pc}
 8003aba:	4620      	mov	r0, r4
 8003abc:	f7ff ff32 	bl	8003924 <HAL_SPI_TxCpltCallback>
 8003ac0:	e8bd 83f8 	ldmia.w	sp!, {r3, r4, r5, r6, r7, r8, r9, pc}
 8003ac4:	f017 0f08 	tst.w	r7, #8
 8003ac8:	d002      	beq.n	8003ad0 <HAL_SPI_IRQHandler+0x140>
 8003aca:	f418 6f00 	tst.w	r8, #2048	; 0x800
 8003ace:	d163      	bne.n	8003b98 <HAL_SPI_IRQHandler+0x208>
 8003ad0:	f416 7f58 	tst.w	r6, #864	; 0x360
 8003ad4:	d0ae      	beq.n	8003a34 <HAL_SPI_IRQHandler+0xa4>
 8003ad6:	f016 0f40 	tst.w	r6, #64	; 0x40
 8003ada:	d00a      	beq.n	8003af2 <HAL_SPI_IRQHandler+0x162>
 8003adc:	f8d4 3084 	ldr.w	r3, [r4, #132]	; 0x84
 8003ae0:	f043 0304 	orr.w	r3, r3, #4
 8003ae4:	f8c4 3084 	str.w	r3, [r4, #132]	; 0x84
 8003ae8:	6822      	ldr	r2, [r4, #0]
 8003aea:	6993      	ldr	r3, [r2, #24]
 8003aec:	f043 0340 	orr.w	r3, r3, #64	; 0x40
 8003af0:	6193      	str	r3, [r2, #24]
 8003af2:	f416 7f00 	tst.w	r6, #512	; 0x200
 8003af6:	d00a      	beq.n	8003b0e <HAL_SPI_IRQHandler+0x17e>
 8003af8:	f8d4 3084 	ldr.w	r3, [r4, #132]	; 0x84
 8003afc:	f043 0301 	orr.w	r3, r3, #1
 8003b00:	f8c4 3084 	str.w	r3, [r4, #132]	; 0x84
 8003b04:	6822      	ldr	r2, [r4, #0]
 8003b06:	6993      	ldr	r3, [r2, #24]
 8003b08:	f443 7300 	orr.w	r3, r3, #512	; 0x200
 8003b0c:	6193      	str	r3, [r2, #24]
 8003b0e:	f416 7f80 	tst.w	r6, #256	; 0x100
 8003b12:	d00a      	beq.n	8003b2a <HAL_SPI_IRQHandler+0x19a>
 8003b14:	f8d4 3084 	ldr.w	r3, [r4, #132]	; 0x84
 8003b18:	f043 0308 	orr.w	r3, r3, #8
 8003b1c:	f8c4 3084 	str.w	r3, [r4, #132]	; 0x84
 8003b20:	6822      	ldr	r2, [r4, #0]
 8003b22:	6993      	ldr	r3, [r2, #24]
 8003b24:	f443 7380 	orr.w	r3, r3, #256	; 0x100
 8003b28:	6193      	str	r3, [r2, #24]
 8003b2a:	f016 0f20 	tst.w	r6, #32
 8003b2e:	d00a      	beq.n	8003b46 <HAL_SPI_IRQHandler+0x1b6>
 8003b30:	f8d4 3084 	ldr.w	r3, [r4, #132]	; 0x84
 8003b34:	f043 0380 	orr.w	r3, r3, #128	; 0x80
 8003b38:	f8c4 3084 	str.w	r3, [r4, #132]	; 0x84
 8003b3c:	6822      	ldr	r2, [r4, #0]
 8003b3e:	6993      	ldr	r3, [r2, #24]
 8003b40:	f043 0320 	orr.w	r3, r3, #32
 8003b44:	6193      	str	r3, [r2, #24]
 8003b46:	f8d4 3084 	ldr.w	r3, [r4, #132]	; 0x84
 8003b4a:	2b00      	cmp	r3, #0
 8003b4c:	f43f af72 	beq.w	8003a34 <HAL_SPI_IRQHandler+0xa4>
 8003b50:	6822      	ldr	r2, [r4, #0]
 8003b52:	6813      	ldr	r3, [r2, #0]
 8003b54:	f023 0301 	bic.w	r3, r3, #1
 8003b58:	6013      	str	r3, [r2, #0]
 8003b5a:	6822      	ldr	r2, [r4, #0]
 8003b5c:	6911      	ldr	r1, [r2, #16]
 8003b5e:	4b15      	ldr	r3, [pc, #84]	; (8003bb4 <HAL_SPI_IRQHandler+0x224>)
 8003b60:	400b      	ands	r3, r1
 8003b62:	6113      	str	r3, [r2, #16]
 8003b64:	f419 4f40 	tst.w	r9, #49152	; 0xc000
 8003b68:	d01d      	beq.n	8003ba6 <HAL_SPI_IRQHandler+0x216>
 8003b6a:	6822      	ldr	r2, [r4, #0]
 8003b6c:	6893      	ldr	r3, [r2, #8]
 8003b6e:	f423 4340 	bic.w	r3, r3, #49152	; 0xc000
 8003b72:	6093      	str	r3, [r2, #8]
 8003b74:	6fe3      	ldr	r3, [r4, #124]	; 0x7c
 8003b76:	b123      	cbz	r3, 8003b82 <HAL_SPI_IRQHandler+0x1f2>
 8003b78:	4a0f      	ldr	r2, [pc, #60]	; (8003bb8 <HAL_SPI_IRQHandler+0x228>)
 8003b7a:	651a      	str	r2, [r3, #80]	; 0x50
 8003b7c:	6fe0      	ldr	r0, [r4, #124]	; 0x7c
 8003b7e:	f7fd f875 	bl	8000c6c <HAL_DMA_Abort_IT>
 8003b82:	6fa3      	ldr	r3, [r4, #120]	; 0x78
 8003b84:	2b00      	cmp	r3, #0
 8003b86:	f43f af55 	beq.w	8003a34 <HAL_SPI_IRQHandler+0xa4>
 8003b8a:	4a0b      	ldr	r2, [pc, #44]	; (8003bb8 <HAL_SPI_IRQHandler+0x228>)
 8003b8c:	651a      	str	r2, [r3, #80]	; 0x50
 8003b8e:	6fa0      	ldr	r0, [r4, #120]	; 0x78
 8003b90:	f7fd f86c 	bl	8000c6c <HAL_DMA_Abort_IT>
 8003b94:	e8bd 83f8 	ldmia.w	sp!, {r3, r4, r5, r6, r7, r8, r9, pc}
 8003b98:	6822      	ldr	r2, [r4, #0]
 8003b9a:	6993      	ldr	r3, [r2, #24]
 8003b9c:	f443 6300 	orr.w	r3, r3, #2048	; 0x800
 8003ba0:	6193      	str	r3, [r2, #24]
 8003ba2:	e8bd 83f8 	ldmia.w	sp!, {r3, r4, r5, r6, r7, r8, r9, pc}
 8003ba6:	2301      	movs	r3, #1
 8003ba8:	f884 3081 	strb.w	r3, [r4, #129]	; 0x81
 8003bac:	4620      	mov	r0, r4
 8003bae:	f7ff fed7 	bl	8003960 <HAL_SPI_ErrorCallback>
 8003bb2:	e73f      	b.n	8003a34 <HAL_SPI_IRQHandler+0xa4>
 8003bb4:	fffffc94 	.word	0xfffffc94
 8003bb8:	08003bbd 	.word	0x08003bbd

08003bbc <SPI_DMAAbortOnError>:
 8003bbc:	b508      	push	{r3, lr}
 8003bbe:	6b80      	ldr	r0, [r0, #56]	; 0x38
 8003bc0:	2300      	movs	r3, #0
 8003bc2:	f8a0 306a 	strh.w	r3, [r0, #106]	; 0x6a
 8003bc6:	f8a0 3062 	strh.w	r3, [r0, #98]	; 0x62
 8003bca:	2301      	movs	r3, #1
 8003bcc:	f880 3081 	strb.w	r3, [r0, #129]	; 0x81
 8003bd0:	f7ff fec6 	bl	8003960 <HAL_SPI_ErrorCallback>
 8003bd4:	bd08      	pop	{r3, pc}
	...

08003bd8 <UART_SetConfig>:
 8003bd8:	e92d 43f0 	stmdb	sp!, {r4, r5, r6, r7, r8, r9, lr}
 8003bdc:	b087      	sub	sp, #28
 8003bde:	4604      	mov	r4, r0
 8003be0:	6801      	ldr	r1, [r0, #0]
 8003be2:	6a82      	ldr	r2, [r0, #40]	; 0x28
 8003be4:	6883      	ldr	r3, [r0, #8]
 8003be6:	6900      	ldr	r0, [r0, #16]
 8003be8:	4303      	orrs	r3, r0
 8003bea:	6960      	ldr	r0, [r4, #20]
 8003bec:	4303      	orrs	r3, r0
 8003bee:	69e0      	ldr	r0, [r4, #28]
 8003bf0:	4303      	orrs	r3, r0
 8003bf2:	4313      	orrs	r3, r2
 8003bf4:	6808      	ldr	r0, [r1, #0]
 8003bf6:	4a8f      	ldr	r2, [pc, #572]	; (8003e34 <UART_SetConfig+0x25c>)
 8003bf8:	4002      	ands	r2, r0
 8003bfa:	4313      	orrs	r3, r2
 8003bfc:	600b      	str	r3, [r1, #0]
 8003bfe:	6822      	ldr	r2, [r4, #0]
 8003c00:	6853      	ldr	r3, [r2, #4]
 8003c02:	f423 5340 	bic.w	r3, r3, #12288	; 0x3000
 8003c06:	68e1      	ldr	r1, [r4, #12]
 8003c08:	430b      	orrs	r3, r1
 8003c0a:	6053      	str	r3, [r2, #4]
 8003c0c:	69a3      	ldr	r3, [r4, #24]
 8003c0e:	6822      	ldr	r2, [r4, #0]
 8003c10:	4989      	ldr	r1, [pc, #548]	; (8003e38 <UART_SetConfig+0x260>)
 8003c12:	428a      	cmp	r2, r1
 8003c14:	d001      	beq.n	8003c1a <UART_SetConfig+0x42>
 8003c16:	6a21      	ldr	r1, [r4, #32]
 8003c18:	430b      	orrs	r3, r1
 8003c1a:	6aa1      	ldr	r1, [r4, #40]	; 0x28
 8003c1c:	f1b1 5f00 	cmp.w	r1, #536870912	; 0x20000000
 8003c20:	d07f      	beq.n	8003d22 <UART_SetConfig+0x14a>
 8003c22:	6890      	ldr	r0, [r2, #8]
 8003c24:	4985      	ldr	r1, [pc, #532]	; (8003e3c <UART_SetConfig+0x264>)
 8003c26:	4001      	ands	r1, r0
 8003c28:	430b      	orrs	r3, r1
 8003c2a:	6093      	str	r3, [r2, #8]
 8003c2c:	6822      	ldr	r2, [r4, #0]
 8003c2e:	6ad3      	ldr	r3, [r2, #44]	; 0x2c
 8003c30:	f023 030f 	bic.w	r3, r3, #15
 8003c34:	6a61      	ldr	r1, [r4, #36]	; 0x24
 8003c36:	430b      	orrs	r3, r1
 8003c38:	62d3      	str	r3, [r2, #44]	; 0x2c
 8003c3a:	6825      	ldr	r5, [r4, #0]
 8003c3c:	4b80      	ldr	r3, [pc, #512]	; (8003e40 <UART_SetConfig+0x268>)
 8003c3e:	429d      	cmp	r5, r3
 8003c40:	d074      	beq.n	8003d2c <UART_SetConfig+0x154>
 8003c42:	4b80      	ldr	r3, [pc, #512]	; (8003e44 <UART_SetConfig+0x26c>)
 8003c44:	429d      	cmp	r5, r3
 8003c46:	f000 80ae 	beq.w	8003da6 <UART_SetConfig+0x1ce>
 8003c4a:	4b7f      	ldr	r3, [pc, #508]	; (8003e48 <UART_SetConfig+0x270>)
 8003c4c:	429d      	cmp	r5, r3
 8003c4e:	f000 80c4 	beq.w	8003dda <UART_SetConfig+0x202>
 8003c52:	4b7e      	ldr	r3, [pc, #504]	; (8003e4c <UART_SetConfig+0x274>)
 8003c54:	429d      	cmp	r5, r3
 8003c56:	f000 80d7 	beq.w	8003e08 <UART_SetConfig+0x230>
 8003c5a:	4b7d      	ldr	r3, [pc, #500]	; (8003e50 <UART_SetConfig+0x278>)
 8003c5c:	429d      	cmp	r5, r3
 8003c5e:	f000 8103 	beq.w	8003e68 <UART_SetConfig+0x290>
 8003c62:	4b7c      	ldr	r3, [pc, #496]	; (8003e54 <UART_SetConfig+0x27c>)
 8003c64:	429d      	cmp	r5, r3
 8003c66:	f000 8116 	beq.w	8003e96 <UART_SetConfig+0x2be>
 8003c6a:	4b7b      	ldr	r3, [pc, #492]	; (8003e58 <UART_SetConfig+0x280>)
 8003c6c:	429d      	cmp	r5, r3
 8003c6e:	f000 813b 	beq.w	8003ee8 <UART_SetConfig+0x310>
 8003c72:	4b7a      	ldr	r3, [pc, #488]	; (8003e5c <UART_SetConfig+0x284>)
 8003c74:	429d      	cmp	r5, r3
 8003c76:	f000 814e 	beq.w	8003f16 <UART_SetConfig+0x33e>
 8003c7a:	4b6f      	ldr	r3, [pc, #444]	; (8003e38 <UART_SetConfig+0x260>)
 8003c7c:	429d      	cmp	r5, r3
 8003c7e:	f000 8161 	beq.w	8003f44 <UART_SetConfig+0x36c>
 8003c82:	2680      	movs	r6, #128	; 0x80
 8003c84:	4b6c      	ldr	r3, [pc, #432]	; (8003e38 <UART_SetConfig+0x260>)
 8003c86:	429d      	cmp	r5, r3
 8003c88:	f000 8186 	beq.w	8003f98 <UART_SetConfig+0x3c0>
 8003c8c:	69e3      	ldr	r3, [r4, #28]
 8003c8e:	f5b3 4f00 	cmp.w	r3, #32768	; 0x8000
 8003c92:	f000 82af 	beq.w	80041f4 <UART_SetConfig+0x61c>
 8003c96:	2e40      	cmp	r6, #64	; 0x40
 8003c98:	f200 8417 	bhi.w	80044ca <UART_SetConfig+0x8f2>
 8003c9c:	e8df f016 	tbh	[pc, r6, lsl #1]
 8003ca0:	038b037a 	.word	0x038b037a
 8003ca4:	04150415 	.word	0x04150415
 8003ca8:	0415039c 	.word	0x0415039c
 8003cac:	04150415 	.word	0x04150415
 8003cb0:	041503c4 	.word	0x041503c4
 8003cb4:	04150415 	.word	0x04150415
 8003cb8:	04150415 	.word	0x04150415
 8003cbc:	04150415 	.word	0x04150415
 8003cc0:	041503ee 	.word	0x041503ee
 8003cc4:	04150415 	.word	0x04150415
 8003cc8:	04150415 	.word	0x04150415
 8003ccc:	04150415 	.word	0x04150415
 8003cd0:	04150415 	.word	0x04150415
 8003cd4:	04150415 	.word	0x04150415
 8003cd8:	04150415 	.word	0x04150415
 8003cdc:	04150415 	.word	0x04150415
 8003ce0:	041503fe 	.word	0x041503fe
 8003ce4:	04150415 	.word	0x04150415
 8003ce8:	04150415 	.word	0x04150415
 8003cec:	04150415 	.word	0x04150415
 8003cf0:	04150415 	.word	0x04150415
 8003cf4:	04150415 	.word	0x04150415
 8003cf8:	04150415 	.word	0x04150415
 8003cfc:	04150415 	.word	0x04150415
 8003d00:	04150415 	.word	0x04150415
 8003d04:	04150415 	.word	0x04150415
 8003d08:	04150415 	.word	0x04150415
 8003d0c:	04150415 	.word	0x04150415
 8003d10:	04150415 	.word	0x04150415
 8003d14:	04150415 	.word	0x04150415
 8003d18:	04150415 	.word	0x04150415
 8003d1c:	04150415 	.word	0x04150415
 8003d20:	03b0      	.short	0x03b0
 8003d22:	6ae1      	ldr	r1, [r4, #44]	; 0x2c
 8003d24:	6b20      	ldr	r0, [r4, #48]	; 0x30
 8003d26:	4301      	orrs	r1, r0
 8003d28:	430b      	orrs	r3, r1
 8003d2a:	e77a      	b.n	8003c22 <UART_SetConfig+0x4a>
 8003d2c:	4b4c      	ldr	r3, [pc, #304]	; (8003e60 <UART_SetConfig+0x288>)
 8003d2e:	6d5b      	ldr	r3, [r3, #84]	; 0x54
 8003d30:	f003 0338 	and.w	r3, r3, #56	; 0x38
 8003d34:	2b28      	cmp	r3, #40	; 0x28
 8003d36:	d82a      	bhi.n	8003d8e <UART_SetConfig+0x1b6>
 8003d38:	e8df f013 	tbh	[pc, r3, lsl #1]
 8003d3c:	0029011c 	.word	0x0029011c
 8003d40:	00290029 	.word	0x00290029
 8003d44:	00290029 	.word	0x00290029
 8003d48:	00290029 	.word	0x00290029
 8003d4c:	0029002b 	.word	0x0029002b
 8003d50:	00290029 	.word	0x00290029
 8003d54:	00290029 	.word	0x00290029
 8003d58:	00290029 	.word	0x00290029
 8003d5c:	0029002d 	.word	0x0029002d
 8003d60:	00290029 	.word	0x00290029
 8003d64:	00290029 	.word	0x00290029
 8003d68:	00290029 	.word	0x00290029
 8003d6c:	0029002f 	.word	0x0029002f
 8003d70:	00290029 	.word	0x00290029
 8003d74:	00290029 	.word	0x00290029
 8003d78:	00290029 	.word	0x00290029
 8003d7c:	00290031 	.word	0x00290031
 8003d80:	00290029 	.word	0x00290029
 8003d84:	00290029 	.word	0x00290029
 8003d88:	00290029 	.word	0x00290029
 8003d8c:	0033      	.short	0x0033
 8003d8e:	2680      	movs	r6, #128	; 0x80
 8003d90:	e778      	b.n	8003c84 <UART_SetConfig+0xac>
 8003d92:	2604      	movs	r6, #4
 8003d94:	e776      	b.n	8003c84 <UART_SetConfig+0xac>
 8003d96:	2640      	movs	r6, #64	; 0x40
 8003d98:	e774      	b.n	8003c84 <UART_SetConfig+0xac>
 8003d9a:	2608      	movs	r6, #8
 8003d9c:	e772      	b.n	8003c84 <UART_SetConfig+0xac>
 8003d9e:	2610      	movs	r6, #16
 8003da0:	e770      	b.n	8003c84 <UART_SetConfig+0xac>
 8003da2:	2620      	movs	r6, #32
 8003da4:	e76e      	b.n	8003c84 <UART_SetConfig+0xac>
 8003da6:	4b2e      	ldr	r3, [pc, #184]	; (8003e60 <UART_SetConfig+0x288>)
 8003da8:	6d5b      	ldr	r3, [r3, #84]	; 0x54
 8003daa:	f003 0307 	and.w	r3, r3, #7
 8003dae:	2b05      	cmp	r3, #5
 8003db0:	d807      	bhi.n	8003dc2 <UART_SetConfig+0x1ea>
 8003db2:	e8df f013 	tbh	[pc, r3, lsl #1]
 8003db6:	00e1      	.short	0x00e1
 8003db8:	000a0008 	.word	0x000a0008
 8003dbc:	000e000c 	.word	0x000e000c
 8003dc0:	0010      	.short	0x0010
 8003dc2:	2680      	movs	r6, #128	; 0x80
 8003dc4:	e75e      	b.n	8003c84 <UART_SetConfig+0xac>
 8003dc6:	2604      	movs	r6, #4
 8003dc8:	e75c      	b.n	8003c84 <UART_SetConfig+0xac>
 8003dca:	2640      	movs	r6, #64	; 0x40
 8003dcc:	e75a      	b.n	8003c84 <UART_SetConfig+0xac>
 8003dce:	2608      	movs	r6, #8
 8003dd0:	e758      	b.n	8003c84 <UART_SetConfig+0xac>
 8003dd2:	2610      	movs	r6, #16
 8003dd4:	e756      	b.n	8003c84 <UART_SetConfig+0xac>
 8003dd6:	2620      	movs	r6, #32
 8003dd8:	e754      	b.n	8003c84 <UART_SetConfig+0xac>
 8003dda:	4b21      	ldr	r3, [pc, #132]	; (8003e60 <UART_SetConfig+0x288>)
 8003ddc:	6d5b      	ldr	r3, [r3, #84]	; 0x54
 8003dde:	f003 0307 	and.w	r3, r3, #7
 8003de2:	2b05      	cmp	r3, #5
 8003de4:	d804      	bhi.n	8003df0 <UART_SetConfig+0x218>
 8003de6:	e8df f003 	tbb	[pc, r3]
 8003dea:	05c9      	.short	0x05c9
 8003dec:	0d0b0907 	.word	0x0d0b0907
 8003df0:	2680      	movs	r6, #128	; 0x80
 8003df2:	e747      	b.n	8003c84 <UART_SetConfig+0xac>
 8003df4:	2604      	movs	r6, #4
 8003df6:	e745      	b.n	8003c84 <UART_SetConfig+0xac>
 8003df8:	2640      	movs	r6, #64	; 0x40
 8003dfa:	e743      	b.n	8003c84 <UART_SetConfig+0xac>
 8003dfc:	2608      	movs	r6, #8
 8003dfe:	e741      	b.n	8003c84 <UART_SetConfig+0xac>
 8003e00:	2610      	movs	r6, #16
 8003e02:	e73f      	b.n	8003c84 <UART_SetConfig+0xac>
 8003e04:	2620      	movs	r6, #32
 8003e06:	e73d      	b.n	8003c84 <UART_SetConfig+0xac>
 8003e08:	4b15      	ldr	r3, [pc, #84]	; (8003e60 <UART_SetConfig+0x288>)
 8003e0a:	6d5b      	ldr	r3, [r3, #84]	; 0x54
 8003e0c:	f003 0307 	and.w	r3, r3, #7
 8003e10:	2b05      	cmp	r3, #5
 8003e12:	d804      	bhi.n	8003e1e <UART_SetConfig+0x246>
 8003e14:	e8df f003 	tbb	[pc, r3]
 8003e18:	090705b4 	.word	0x090705b4
 8003e1c:	260b      	.short	0x260b
 8003e1e:	2680      	movs	r6, #128	; 0x80
 8003e20:	e730      	b.n	8003c84 <UART_SetConfig+0xac>
 8003e22:	2604      	movs	r6, #4
 8003e24:	e72e      	b.n	8003c84 <UART_SetConfig+0xac>
 8003e26:	2640      	movs	r6, #64	; 0x40
 8003e28:	e72c      	b.n	8003c84 <UART_SetConfig+0xac>
 8003e2a:	2608      	movs	r6, #8
 8003e2c:	e72a      	b.n	8003c84 <UART_SetConfig+0xac>
 8003e2e:	2610      	movs	r6, #16
 8003e30:	e728      	b.n	8003c84 <UART_SetConfig+0xac>
 8003e32:	bf00      	nop
 8003e34:	cfff69f3 	.word	0xcfff69f3
 8003e38:	58000c00 	.word	0x58000c00
 8003e3c:	11fff4ff 	.word	0x11fff4ff
 8003e40:	40011000 	.word	0x40011000
 8003e44:	40004400 	.word	0x40004400
 8003e48:	40004800 	.word	0x40004800
 8003e4c:	40004c00 	.word	0x40004c00
 8003e50:	40005000 	.word	0x40005000
 8003e54:	40011400 	.word	0x40011400
 8003e58:	40007800 	.word	0x40007800
 8003e5c:	40007c00 	.word	0x40007c00
 8003e60:	58024400 	.word	0x58024400
 8003e64:	2620      	movs	r6, #32
 8003e66:	e70d      	b.n	8003c84 <UART_SetConfig+0xac>
 8003e68:	4b85      	ldr	r3, [pc, #532]	; (8004080 <UART_SetConfig+0x4a8>)
 8003e6a:	6d5b      	ldr	r3, [r3, #84]	; 0x54
 8003e6c:	f003 0307 	and.w	r3, r3, #7
 8003e70:	2b05      	cmp	r3, #5
 8003e72:	d804      	bhi.n	8003e7e <UART_SetConfig+0x2a6>
 8003e74:	e8df f003 	tbb	[pc, r3]
 8003e78:	09070586 	.word	0x09070586
 8003e7c:	0d0b      	.short	0x0d0b
 8003e7e:	2680      	movs	r6, #128	; 0x80
 8003e80:	e700      	b.n	8003c84 <UART_SetConfig+0xac>
 8003e82:	2604      	movs	r6, #4
 8003e84:	e6fe      	b.n	8003c84 <UART_SetConfig+0xac>
 8003e86:	2640      	movs	r6, #64	; 0x40
 8003e88:	e6fc      	b.n	8003c84 <UART_SetConfig+0xac>
 8003e8a:	2608      	movs	r6, #8
 8003e8c:	e6fa      	b.n	8003c84 <UART_SetConfig+0xac>
 8003e8e:	2610      	movs	r6, #16
 8003e90:	e6f8      	b.n	8003c84 <UART_SetConfig+0xac>
 8003e92:	2620      	movs	r6, #32
 8003e94:	e6f6      	b.n	8003c84 <UART_SetConfig+0xac>
 8003e96:	4b7a      	ldr	r3, [pc, #488]	; (8004080 <UART_SetConfig+0x4a8>)
 8003e98:	6d5b      	ldr	r3, [r3, #84]	; 0x54
 8003e9a:	f003 0338 	and.w	r3, r3, #56	; 0x38
 8003e9e:	2b28      	cmp	r3, #40	; 0x28
 8003ea0:	d816      	bhi.n	8003ed0 <UART_SetConfig+0x2f8>
 8003ea2:	e8df f003 	tbb	[pc, r3]
 8003ea6:	1571      	.short	0x1571
 8003ea8:	15151515 	.word	0x15151515
 8003eac:	15171515 	.word	0x15171515
 8003eb0:	15151515 	.word	0x15151515
 8003eb4:	15191515 	.word	0x15191515
 8003eb8:	15151515 	.word	0x15151515
 8003ebc:	151b1515 	.word	0x151b1515
 8003ec0:	15151515 	.word	0x15151515
 8003ec4:	151d1515 	.word	0x151d1515
 8003ec8:	15151515 	.word	0x15151515
 8003ecc:	1515      	.short	0x1515
 8003ece:	1f          	.byte	0x1f
 8003ecf:	00          	.byte	0x00
 8003ed0:	2680      	movs	r6, #128	; 0x80
 8003ed2:	e6d7      	b.n	8003c84 <UART_SetConfig+0xac>
 8003ed4:	2604      	movs	r6, #4
 8003ed6:	e6d5      	b.n	8003c84 <UART_SetConfig+0xac>
 8003ed8:	2640      	movs	r6, #64	; 0x40
 8003eda:	e6d3      	b.n	8003c84 <UART_SetConfig+0xac>
 8003edc:	2608      	movs	r6, #8
 8003ede:	e6d1      	b.n	8003c84 <UART_SetConfig+0xac>
 8003ee0:	2610      	movs	r6, #16
 8003ee2:	e6cf      	b.n	8003c84 <UART_SetConfig+0xac>
 8003ee4:	2620      	movs	r6, #32
 8003ee6:	e6cd      	b.n	8003c84 <UART_SetConfig+0xac>
 8003ee8:	4b65      	ldr	r3, [pc, #404]	; (8004080 <UART_SetConfig+0x4a8>)
 8003eea:	6d5b      	ldr	r3, [r3, #84]	; 0x54
 8003eec:	f003 0307 	and.w	r3, r3, #7
 8003ef0:	2b05      	cmp	r3, #5
 8003ef2:	d804      	bhi.n	8003efe <UART_SetConfig+0x326>
 8003ef4:	e8df f003 	tbb	[pc, r3]
 8003ef8:	0907054a 	.word	0x0907054a
 8003efc:	0d0b      	.short	0x0d0b
 8003efe:	2680      	movs	r6, #128	; 0x80
 8003f00:	e6c0      	b.n	8003c84 <UART_SetConfig+0xac>
 8003f02:	2604      	movs	r6, #4
 8003f04:	e6be      	b.n	8003c84 <UART_SetConfig+0xac>
 8003f06:	2640      	movs	r6, #64	; 0x40
 8003f08:	e6bc      	b.n	8003c84 <UART_SetConfig+0xac>
 8003f0a:	2608      	movs	r6, #8
 8003f0c:	e6ba      	b.n	8003c84 <UART_SetConfig+0xac>
 8003f0e:	2610      	movs	r6, #16
 8003f10:	e6b8      	b.n	8003c84 <UART_SetConfig+0xac>
 8003f12:	2620      	movs	r6, #32
 8003f14:	e6b6      	b.n	8003c84 <UART_SetConfig+0xac>
 8003f16:	4b5a      	ldr	r3, [pc, #360]	; (8004080 <UART_SetConfig+0x4a8>)
 8003f18:	6d5b      	ldr	r3, [r3, #84]	; 0x54
 8003f1a:	f003 0307 	and.w	r3, r3, #7
 8003f1e:	2b05      	cmp	r3, #5
 8003f20:	d804      	bhi.n	8003f2c <UART_SetConfig+0x354>
 8003f22:	e8df f003 	tbb	[pc, r3]
 8003f26:	0535      	.short	0x0535
 8003f28:	0d0b0907 	.word	0x0d0b0907
 8003f2c:	2680      	movs	r6, #128	; 0x80
 8003f2e:	e6a9      	b.n	8003c84 <UART_SetConfig+0xac>
 8003f30:	2604      	movs	r6, #4
 8003f32:	e6a7      	b.n	8003c84 <UART_SetConfig+0xac>
 8003f34:	2640      	movs	r6, #64	; 0x40
 8003f36:	e6a5      	b.n	8003c84 <UART_SetConfig+0xac>
 8003f38:	2608      	movs	r6, #8
 8003f3a:	e6a3      	b.n	8003c84 <UART_SetConfig+0xac>
 8003f3c:	2610      	movs	r6, #16
 8003f3e:	e6a1      	b.n	8003c84 <UART_SetConfig+0xac>
 8003f40:	2620      	movs	r6, #32
 8003f42:	e69f      	b.n	8003c84 <UART_SetConfig+0xac>
 8003f44:	f503 330e 	add.w	r3, r3, #145408	; 0x23800
 8003f48:	6d9b      	ldr	r3, [r3, #88]	; 0x58
 8003f4a:	f003 0307 	and.w	r3, r3, #7
 8003f4e:	2b05      	cmp	r3, #5
 8003f50:	d804      	bhi.n	8003f5c <UART_SetConfig+0x384>
 8003f52:	e8df f003 	tbb	[pc, r3]
 8003f56:	051f      	.short	0x051f
 8003f58:	0d0b0907 	.word	0x0d0b0907
 8003f5c:	2680      	movs	r6, #128	; 0x80
 8003f5e:	e691      	b.n	8003c84 <UART_SetConfig+0xac>
 8003f60:	2604      	movs	r6, #4
 8003f62:	e68f      	b.n	8003c84 <UART_SetConfig+0xac>
 8003f64:	2640      	movs	r6, #64	; 0x40
 8003f66:	e68d      	b.n	8003c84 <UART_SetConfig+0xac>
 8003f68:	2608      	movs	r6, #8
 8003f6a:	e68b      	b.n	8003c84 <UART_SetConfig+0xac>
 8003f6c:	2610      	movs	r6, #16
 8003f6e:	e689      	b.n	8003c84 <UART_SetConfig+0xac>
 8003f70:	2620      	movs	r6, #32
 8003f72:	e687      	b.n	8003c84 <UART_SetConfig+0xac>
 8003f74:	2601      	movs	r6, #1
 8003f76:	e685      	b.n	8003c84 <UART_SetConfig+0xac>
 8003f78:	2600      	movs	r6, #0
 8003f7a:	e683      	b.n	8003c84 <UART_SetConfig+0xac>
 8003f7c:	2600      	movs	r6, #0
 8003f7e:	e681      	b.n	8003c84 <UART_SetConfig+0xac>
 8003f80:	2600      	movs	r6, #0
 8003f82:	e67f      	b.n	8003c84 <UART_SetConfig+0xac>
 8003f84:	2600      	movs	r6, #0
 8003f86:	e67d      	b.n	8003c84 <UART_SetConfig+0xac>
 8003f88:	2601      	movs	r6, #1
 8003f8a:	e67b      	b.n	8003c84 <UART_SetConfig+0xac>
 8003f8c:	2600      	movs	r6, #0
 8003f8e:	e679      	b.n	8003c84 <UART_SetConfig+0xac>
 8003f90:	2600      	movs	r6, #0
 8003f92:	e677      	b.n	8003c84 <UART_SetConfig+0xac>
 8003f94:	2602      	movs	r6, #2
 8003f96:	e675      	b.n	8003c84 <UART_SetConfig+0xac>
 8003f98:	2e08      	cmp	r6, #8
 8003f9a:	d03a      	beq.n	8004012 <UART_SetConfig+0x43a>
 8003f9c:	d908      	bls.n	8003fb0 <UART_SetConfig+0x3d8>
 8003f9e:	2e20      	cmp	r6, #32
 8003fa0:	d044      	beq.n	800402c <UART_SetConfig+0x454>
 8003fa2:	2e40      	cmp	r6, #64	; 0x40
 8003fa4:	d02f      	beq.n	8004006 <UART_SetConfig+0x42e>
 8003fa6:	2e10      	cmp	r6, #16
 8003fa8:	d00c      	beq.n	8003fc4 <UART_SetConfig+0x3ec>
 8003faa:	2501      	movs	r5, #1
 8003fac:	2000      	movs	r0, #0
 8003fae:	e00b      	b.n	8003fc8 <UART_SetConfig+0x3f0>
 8003fb0:	2e02      	cmp	r6, #2
 8003fb2:	d024      	beq.n	8003ffe <UART_SetConfig+0x426>
 8003fb4:	2e04      	cmp	r6, #4
 8003fb6:	d1f8      	bne.n	8003faa <UART_SetConfig+0x3d2>
 8003fb8:	a803      	add	r0, sp, #12
 8003fba:	f7fe ff6d 	bl	8002e98 <HAL_RCCEx_GetPLL2ClockFreq>
 8003fbe:	9804      	ldr	r0, [sp, #16]
 8003fc0:	2500      	movs	r5, #0
 8003fc2:	e001      	b.n	8003fc8 <UART_SetConfig+0x3f0>
 8003fc4:	2500      	movs	r5, #0
 8003fc6:	482f      	ldr	r0, [pc, #188]	; (8004084 <UART_SetConfig+0x4ac>)
 8003fc8:	2800      	cmp	r0, #0
 8003fca:	f000 8150 	beq.w	800426e <UART_SetConfig+0x696>
 8003fce:	6867      	ldr	r7, [r4, #4]
 8003fd0:	eb07 0347 	add.w	r3, r7, r7, lsl #1
 8003fd4:	4298      	cmp	r0, r3
 8003fd6:	f0c0 8272 	bcc.w	80044be <UART_SetConfig+0x8e6>
 8003fda:	ebb0 3f07 	cmp.w	r0, r7, lsl #12
 8003fde:	f200 8270 	bhi.w	80044c2 <UART_SetConfig+0x8ea>
 8003fe2:	2e08      	cmp	r6, #8
 8003fe4:	f000 8096 	beq.w	8004114 <UART_SetConfig+0x53c>
 8003fe8:	d927      	bls.n	800403a <UART_SetConfig+0x462>
 8003fea:	2e20      	cmp	r6, #32
 8003fec:	f000 80ee 	beq.w	80041cc <UART_SetConfig+0x5f4>
 8003ff0:	2e40      	cmp	r6, #64	; 0x40
 8003ff2:	d071      	beq.n	80040d8 <UART_SetConfig+0x500>
 8003ff4:	2e10      	cmp	r6, #16
 8003ff6:	f000 80ce 	beq.w	8004196 <UART_SetConfig+0x5be>
 8003ffa:	2501      	movs	r5, #1
 8003ffc:	e063      	b.n	80040c6 <UART_SetConfig+0x4ee>
 8003ffe:	f7fe ff35 	bl	8002e6c <HAL_RCCEx_GetD3PCLK1Freq>
 8004002:	2500      	movs	r5, #0
 8004004:	e7e0      	b.n	8003fc8 <UART_SetConfig+0x3f0>
 8004006:	4668      	mov	r0, sp
 8004008:	f7ff f82a 	bl	8003060 <HAL_RCCEx_GetPLL3ClockFreq>
 800400c:	9801      	ldr	r0, [sp, #4]
 800400e:	2500      	movs	r5, #0
 8004010:	e7da      	b.n	8003fc8 <UART_SetConfig+0x3f0>
 8004012:	4b1b      	ldr	r3, [pc, #108]	; (8004080 <UART_SetConfig+0x4a8>)
 8004014:	681b      	ldr	r3, [r3, #0]
 8004016:	f013 0f20 	tst.w	r3, #32
 800401a:	d00b      	beq.n	8004034 <UART_SetConfig+0x45c>
 800401c:	4b18      	ldr	r3, [pc, #96]	; (8004080 <UART_SetConfig+0x4a8>)
 800401e:	681b      	ldr	r3, [r3, #0]
 8004020:	f3c3 03c1 	ubfx	r3, r3, #3, #2
 8004024:	4818      	ldr	r0, [pc, #96]	; (8004088 <UART_SetConfig+0x4b0>)
 8004026:	40d8      	lsrs	r0, r3
 8004028:	2500      	movs	r5, #0
 800402a:	e7cd      	b.n	8003fc8 <UART_SetConfig+0x3f0>
 800402c:	2500      	movs	r5, #0
 800402e:	f44f 4000 	mov.w	r0, #32768	; 0x8000
 8004032:	e7c9      	b.n	8003fc8 <UART_SetConfig+0x3f0>
 8004034:	2500      	movs	r5, #0
 8004036:	4814      	ldr	r0, [pc, #80]	; (8004088 <UART_SetConfig+0x4b0>)
 8004038:	e7c6      	b.n	8003fc8 <UART_SetConfig+0x3f0>
 800403a:	2e02      	cmp	r6, #2
 800403c:	d028      	beq.n	8004090 <UART_SetConfig+0x4b8>
 800403e:	2e04      	cmp	r6, #4
 8004040:	d1db      	bne.n	8003ffa <UART_SetConfig+0x422>
 8004042:	a803      	add	r0, sp, #12
 8004044:	f7fe ff28 	bl	8002e98 <HAL_RCCEx_GetPLL2ClockFreq>
 8004048:	f04f 0800 	mov.w	r8, #0
 800404c:	6a62      	ldr	r2, [r4, #36]	; 0x24
 800404e:	4b0f      	ldr	r3, [pc, #60]	; (800408c <UART_SetConfig+0x4b4>)
 8004050:	f833 2012 	ldrh.w	r2, [r3, r2, lsl #1]
 8004054:	2300      	movs	r3, #0
 8004056:	9804      	ldr	r0, [sp, #16]
 8004058:	4641      	mov	r1, r8
 800405a:	f7fc f93d 	bl	80002d8 <__aeabi_uldivmod>
 800405e:	020f      	lsls	r7, r1, #8
 8004060:	ea47 6710 	orr.w	r7, r7, r0, lsr #24
 8004064:	0206      	lsls	r6, r0, #8
 8004066:	6862      	ldr	r2, [r4, #4]
 8004068:	0850      	lsrs	r0, r2, #1
 800406a:	4643      	mov	r3, r8
 800406c:	eb16 0800 	adds.w	r8, r6, r0
 8004070:	f147 0900 	adc.w	r9, r7, #0
 8004074:	4640      	mov	r0, r8
 8004076:	4649      	mov	r1, r9
 8004078:	f7fc f92e 	bl	80002d8 <__aeabi_uldivmod>
 800407c:	e023      	b.n	80040c6 <UART_SetConfig+0x4ee>
 800407e:	bf00      	nop
 8004080:	58024400 	.word	0x58024400
 8004084:	003d0900 	.word	0x003d0900
 8004088:	03d09000 	.word	0x03d09000
 800408c:	080057a4 	.word	0x080057a4
 8004090:	f7fe feec 	bl	8002e6c <HAL_RCCEx_GetD3PCLK1Freq>
 8004094:	f04f 0800 	mov.w	r8, #0
 8004098:	6a62      	ldr	r2, [r4, #36]	; 0x24
 800409a:	4b9f      	ldr	r3, [pc, #636]	; (8004318 <UART_SetConfig+0x740>)
 800409c:	f833 2012 	ldrh.w	r2, [r3, r2, lsl #1]
 80040a0:	2300      	movs	r3, #0
 80040a2:	4641      	mov	r1, r8
 80040a4:	f7fc f918 	bl	80002d8 <__aeabi_uldivmod>
 80040a8:	020f      	lsls	r7, r1, #8
 80040aa:	ea47 6710 	orr.w	r7, r7, r0, lsr #24
 80040ae:	0206      	lsls	r6, r0, #8
 80040b0:	6862      	ldr	r2, [r4, #4]
 80040b2:	0850      	lsrs	r0, r2, #1
 80040b4:	4643      	mov	r3, r8
 80040b6:	eb16 0800 	adds.w	r8, r6, r0
 80040ba:	f147 0900 	adc.w	r9, r7, #0
 80040be:	4640      	mov	r0, r8
 80040c0:	4649      	mov	r1, r9
 80040c2:	f7fc f909 	bl	80002d8 <__aeabi_uldivmod>
 80040c6:	f5a0 7240 	sub.w	r2, r0, #768	; 0x300
 80040ca:	4b94      	ldr	r3, [pc, #592]	; (800431c <UART_SetConfig+0x744>)
 80040cc:	429a      	cmp	r2, r3
 80040ce:	f200 81fa 	bhi.w	80044c6 <UART_SetConfig+0x8ee>
 80040d2:	6823      	ldr	r3, [r4, #0]
 80040d4:	60d8      	str	r0, [r3, #12]
 80040d6:	e0ca      	b.n	800426e <UART_SetConfig+0x696>
 80040d8:	4668      	mov	r0, sp
 80040da:	f7fe ffc1 	bl	8003060 <HAL_RCCEx_GetPLL3ClockFreq>
 80040de:	f04f 0800 	mov.w	r8, #0
 80040e2:	6a62      	ldr	r2, [r4, #36]	; 0x24
 80040e4:	4b8c      	ldr	r3, [pc, #560]	; (8004318 <UART_SetConfig+0x740>)
 80040e6:	f833 2012 	ldrh.w	r2, [r3, r2, lsl #1]
 80040ea:	2300      	movs	r3, #0
 80040ec:	9801      	ldr	r0, [sp, #4]
 80040ee:	4641      	mov	r1, r8
 80040f0:	f7fc f8f2 	bl	80002d8 <__aeabi_uldivmod>
 80040f4:	020f      	lsls	r7, r1, #8
 80040f6:	ea47 6710 	orr.w	r7, r7, r0, lsr #24
 80040fa:	0206      	lsls	r6, r0, #8
 80040fc:	6862      	ldr	r2, [r4, #4]
 80040fe:	0850      	lsrs	r0, r2, #1
 8004100:	4643      	mov	r3, r8
 8004102:	eb16 0800 	adds.w	r8, r6, r0
 8004106:	f147 0900 	adc.w	r9, r7, #0
 800410a:	4640      	mov	r0, r8
 800410c:	4649      	mov	r1, r9
 800410e:	f7fc f8e3 	bl	80002d8 <__aeabi_uldivmod>
 8004112:	e7d8      	b.n	80040c6 <UART_SetConfig+0x4ee>
 8004114:	4b82      	ldr	r3, [pc, #520]	; (8004320 <UART_SetConfig+0x748>)
 8004116:	681b      	ldr	r3, [r3, #0]
 8004118:	f013 0f20 	tst.w	r3, #32
 800411c:	d020      	beq.n	8004160 <UART_SetConfig+0x588>
 800411e:	4b80      	ldr	r3, [pc, #512]	; (8004320 <UART_SetConfig+0x748>)
 8004120:	6819      	ldr	r1, [r3, #0]
 8004122:	f3c1 01c1 	ubfx	r1, r1, #3, #2
 8004126:	2600      	movs	r6, #0
 8004128:	6a62      	ldr	r2, [r4, #36]	; 0x24
 800412a:	4b7b      	ldr	r3, [pc, #492]	; (8004318 <UART_SetConfig+0x740>)
 800412c:	f833 2012 	ldrh.w	r2, [r3, r2, lsl #1]
 8004130:	2300      	movs	r3, #0
 8004132:	487c      	ldr	r0, [pc, #496]	; (8004324 <UART_SetConfig+0x74c>)
 8004134:	40c8      	lsrs	r0, r1
 8004136:	4631      	mov	r1, r6
 8004138:	f7fc f8ce 	bl	80002d8 <__aeabi_uldivmod>
 800413c:	ea4f 2901 	mov.w	r9, r1, lsl #8
 8004140:	ea49 6910 	orr.w	r9, r9, r0, lsr #24
 8004144:	ea4f 2800 	mov.w	r8, r0, lsl #8
 8004148:	0878      	lsrs	r0, r7, #1
 800414a:	463a      	mov	r2, r7
 800414c:	4633      	mov	r3, r6
 800414e:	eb18 0600 	adds.w	r6, r8, r0
 8004152:	f149 0700 	adc.w	r7, r9, #0
 8004156:	4630      	mov	r0, r6
 8004158:	4639      	mov	r1, r7
 800415a:	f7fc f8bd 	bl	80002d8 <__aeabi_uldivmod>
 800415e:	e7b2      	b.n	80040c6 <UART_SetConfig+0x4ee>
 8004160:	6a62      	ldr	r2, [r4, #36]	; 0x24
 8004162:	4b6d      	ldr	r3, [pc, #436]	; (8004318 <UART_SetConfig+0x740>)
 8004164:	f833 2012 	ldrh.w	r2, [r3, r2, lsl #1]
 8004168:	2300      	movs	r3, #0
 800416a:	486e      	ldr	r0, [pc, #440]	; (8004324 <UART_SetConfig+0x74c>)
 800416c:	2100      	movs	r1, #0
 800416e:	f7fc f8b3 	bl	80002d8 <__aeabi_uldivmod>
 8004172:	ea4f 2901 	mov.w	r9, r1, lsl #8
 8004176:	ea49 6910 	orr.w	r9, r9, r0, lsr #24
 800417a:	ea4f 2800 	mov.w	r8, r0, lsl #8
 800417e:	0878      	lsrs	r0, r7, #1
 8004180:	463a      	mov	r2, r7
 8004182:	2300      	movs	r3, #0
 8004184:	eb18 0600 	adds.w	r6, r8, r0
 8004188:	f149 0700 	adc.w	r7, r9, #0
 800418c:	4630      	mov	r0, r6
 800418e:	4639      	mov	r1, r7
 8004190:	f7fc f8a2 	bl	80002d8 <__aeabi_uldivmod>
 8004194:	e797      	b.n	80040c6 <UART_SetConfig+0x4ee>
 8004196:	6a62      	ldr	r2, [r4, #36]	; 0x24
 8004198:	4b5f      	ldr	r3, [pc, #380]	; (8004318 <UART_SetConfig+0x740>)
 800419a:	f833 2012 	ldrh.w	r2, [r3, r2, lsl #1]
 800419e:	2300      	movs	r3, #0
 80041a0:	4861      	ldr	r0, [pc, #388]	; (8004328 <UART_SetConfig+0x750>)
 80041a2:	2100      	movs	r1, #0
 80041a4:	f7fc f898 	bl	80002d8 <__aeabi_uldivmod>
 80041a8:	ea4f 2901 	mov.w	r9, r1, lsl #8
 80041ac:	ea49 6910 	orr.w	r9, r9, r0, lsr #24
 80041b0:	ea4f 2800 	mov.w	r8, r0, lsl #8
 80041b4:	0878      	lsrs	r0, r7, #1
 80041b6:	463a      	mov	r2, r7
 80041b8:	2300      	movs	r3, #0
 80041ba:	eb18 0600 	adds.w	r6, r8, r0
 80041be:	f149 0700 	adc.w	r7, r9, #0
 80041c2:	4630      	mov	r0, r6
 80041c4:	4639      	mov	r1, r7
 80041c6:	f7fc f887 	bl	80002d8 <__aeabi_uldivmod>
 80041ca:	e77c      	b.n	80040c6 <UART_SetConfig+0x4ee>
 80041cc:	6a62      	ldr	r2, [r4, #36]	; 0x24
 80041ce:	4b52      	ldr	r3, [pc, #328]	; (8004318 <UART_SetConfig+0x740>)
 80041d0:	f833 3012 	ldrh.w	r3, [r3, r2, lsl #1]
 80041d4:	f44f 4200 	mov.w	r2, #32768	; 0x8000
 80041d8:	fbb2 f2f3 	udiv	r2, r2, r3
 80041dc:	b292      	uxth	r2, r2
 80041de:	2100      	movs	r1, #0
 80041e0:	0210      	lsls	r0, r2, #8
 80041e2:	087e      	lsrs	r6, r7, #1
 80041e4:	463a      	mov	r2, r7
 80041e6:	2300      	movs	r3, #0
 80041e8:	1980      	adds	r0, r0, r6
 80041ea:	f141 0100 	adc.w	r1, r1, #0
 80041ee:	f7fc f873 	bl	80002d8 <__aeabi_uldivmod>
 80041f2:	e768      	b.n	80040c6 <UART_SetConfig+0x4ee>
 80041f4:	2e40      	cmp	r6, #64	; 0x40
 80041f6:	f200 80ca 	bhi.w	800438e <UART_SetConfig+0x7b6>
 80041fa:	e8df f006 	tbb	[pc, r6]
 80041fe:	3c21      	.short	0x3c21
 8004200:	c84dc8c8 	.word	0xc84dc8c8
 8004204:	c873c8c8 	.word	0xc873c8c8
 8004208:	c8c8c8c8 	.word	0xc8c8c8c8
 800420c:	c8a7c8c8 	.word	0xc8a7c8c8
 8004210:	c8c8c8c8 	.word	0xc8c8c8c8
 8004214:	c8c8c8c8 	.word	0xc8c8c8c8
 8004218:	c8c8c8c8 	.word	0xc8c8c8c8
 800421c:	c8b7c8c8 	.word	0xc8b7c8c8
 8004220:	c8c8c8c8 	.word	0xc8c8c8c8
 8004224:	c8c8c8c8 	.word	0xc8c8c8c8
 8004228:	c8c8c8c8 	.word	0xc8c8c8c8
 800422c:	c8c8c8c8 	.word	0xc8c8c8c8
 8004230:	c8c8c8c8 	.word	0xc8c8c8c8
 8004234:	c8c8c8c8 	.word	0xc8c8c8c8
 8004238:	c8c8c8c8 	.word	0xc8c8c8c8
 800423c:	c8c8      	.short	0xc8c8
 800423e:	60          	.byte	0x60
 800423f:	00          	.byte	0x00
 8004240:	f7fe f84a 	bl	80022d8 <HAL_RCC_GetPCLK1Freq>
 8004244:	6a62      	ldr	r2, [r4, #36]	; 0x24
 8004246:	4b34      	ldr	r3, [pc, #208]	; (8004318 <UART_SetConfig+0x740>)
 8004248:	f833 3012 	ldrh.w	r3, [r3, r2, lsl #1]
 800424c:	fbb0 f0f3 	udiv	r0, r0, r3
 8004250:	6862      	ldr	r2, [r4, #4]
 8004252:	0853      	lsrs	r3, r2, #1
 8004254:	eb03 0340 	add.w	r3, r3, r0, lsl #1
 8004258:	fbb3 f3f2 	udiv	r3, r3, r2
 800425c:	b29b      	uxth	r3, r3
 800425e:	2500      	movs	r5, #0
 8004260:	f023 020f 	bic.w	r2, r3, #15
 8004264:	f3c3 0342 	ubfx	r3, r3, #1, #3
 8004268:	4313      	orrs	r3, r2
 800426a:	6822      	ldr	r2, [r4, #0]
 800426c:	60d3      	str	r3, [r2, #12]
 800426e:	4628      	mov	r0, r5
 8004270:	b007      	add	sp, #28
 8004272:	e8bd 83f0 	ldmia.w	sp!, {r4, r5, r6, r7, r8, r9, pc}
 8004276:	f7fe f845 	bl	8002304 <HAL_RCC_GetPCLK2Freq>
 800427a:	6a62      	ldr	r2, [r4, #36]	; 0x24
 800427c:	4b26      	ldr	r3, [pc, #152]	; (8004318 <UART_SetConfig+0x740>)
 800427e:	f833 3012 	ldrh.w	r3, [r3, r2, lsl #1]
 8004282:	fbb0 f0f3 	udiv	r0, r0, r3
 8004286:	6862      	ldr	r2, [r4, #4]
 8004288:	0853      	lsrs	r3, r2, #1
 800428a:	eb03 0340 	add.w	r3, r3, r0, lsl #1
 800428e:	fbb3 f3f2 	udiv	r3, r3, r2
 8004292:	b29b      	uxth	r3, r3
 8004294:	2500      	movs	r5, #0
 8004296:	e7e3      	b.n	8004260 <UART_SetConfig+0x688>
 8004298:	a803      	add	r0, sp, #12
 800429a:	f7fe fdfd 	bl	8002e98 <HAL_RCCEx_GetPLL2ClockFreq>
 800429e:	6a62      	ldr	r2, [r4, #36]	; 0x24
 80042a0:	4b1d      	ldr	r3, [pc, #116]	; (8004318 <UART_SetConfig+0x740>)
 80042a2:	f833 2012 	ldrh.w	r2, [r3, r2, lsl #1]
 80042a6:	9b04      	ldr	r3, [sp, #16]
 80042a8:	fbb3 f2f2 	udiv	r2, r3, r2
 80042ac:	6861      	ldr	r1, [r4, #4]
 80042ae:	084b      	lsrs	r3, r1, #1
 80042b0:	eb03 0342 	add.w	r3, r3, r2, lsl #1
 80042b4:	fbb3 f3f1 	udiv	r3, r3, r1
 80042b8:	b29b      	uxth	r3, r3
 80042ba:	2500      	movs	r5, #0
 80042bc:	e7d0      	b.n	8004260 <UART_SetConfig+0x688>
 80042be:	4668      	mov	r0, sp
 80042c0:	f7fe fece 	bl	8003060 <HAL_RCCEx_GetPLL3ClockFreq>
 80042c4:	6a62      	ldr	r2, [r4, #36]	; 0x24
 80042c6:	4b14      	ldr	r3, [pc, #80]	; (8004318 <UART_SetConfig+0x740>)
 80042c8:	f833 2012 	ldrh.w	r2, [r3, r2, lsl #1]
 80042cc:	9b01      	ldr	r3, [sp, #4]
 80042ce:	fbb3 f2f2 	udiv	r2, r3, r2
 80042d2:	6861      	ldr	r1, [r4, #4]
 80042d4:	084b      	lsrs	r3, r1, #1
 80042d6:	eb03 0342 	add.w	r3, r3, r2, lsl #1
 80042da:	fbb3 f3f1 	udiv	r3, r3, r1
 80042de:	b29b      	uxth	r3, r3
 80042e0:	2500      	movs	r5, #0
 80042e2:	e7bd      	b.n	8004260 <UART_SetConfig+0x688>
 80042e4:	4b0e      	ldr	r3, [pc, #56]	; (8004320 <UART_SetConfig+0x748>)
 80042e6:	681b      	ldr	r3, [r3, #0]
 80042e8:	f013 0f20 	tst.w	r3, #32
 80042ec:	d01e      	beq.n	800432c <UART_SetConfig+0x754>
 80042ee:	4b0c      	ldr	r3, [pc, #48]	; (8004320 <UART_SetConfig+0x748>)
 80042f0:	681a      	ldr	r2, [r3, #0]
 80042f2:	f3c2 02c1 	ubfx	r2, r2, #3, #2
 80042f6:	4b0b      	ldr	r3, [pc, #44]	; (8004324 <UART_SetConfig+0x74c>)
 80042f8:	40d3      	lsrs	r3, r2
 80042fa:	6a61      	ldr	r1, [r4, #36]	; 0x24
 80042fc:	4a06      	ldr	r2, [pc, #24]	; (8004318 <UART_SetConfig+0x740>)
 80042fe:	f832 2011 	ldrh.w	r2, [r2, r1, lsl #1]
 8004302:	fbb3 f2f2 	udiv	r2, r3, r2
 8004306:	6861      	ldr	r1, [r4, #4]
 8004308:	084b      	lsrs	r3, r1, #1
 800430a:	eb03 0342 	add.w	r3, r3, r2, lsl #1
 800430e:	fbb3 f3f1 	udiv	r3, r3, r1
 8004312:	b29b      	uxth	r3, r3
 8004314:	2500      	movs	r5, #0
 8004316:	e7a3      	b.n	8004260 <UART_SetConfig+0x688>
 8004318:	080057a4 	.word	0x080057a4
 800431c:	000ffcff 	.word	0x000ffcff
 8004320:	58024400 	.word	0x58024400
 8004324:	03d09000 	.word	0x03d09000
 8004328:	003d0900 	.word	0x003d0900
 800432c:	6a62      	ldr	r2, [r4, #36]	; 0x24
 800432e:	4b68      	ldr	r3, [pc, #416]	; (80044d0 <UART_SetConfig+0x8f8>)
 8004330:	f833 2012 	ldrh.w	r2, [r3, r2, lsl #1]
 8004334:	4b67      	ldr	r3, [pc, #412]	; (80044d4 <UART_SetConfig+0x8fc>)
 8004336:	fbb3 f2f2 	udiv	r2, r3, r2
 800433a:	6861      	ldr	r1, [r4, #4]
 800433c:	084b      	lsrs	r3, r1, #1
 800433e:	eb03 0342 	add.w	r3, r3, r2, lsl #1
 8004342:	fbb3 f3f1 	udiv	r3, r3, r1
 8004346:	b29b      	uxth	r3, r3
 8004348:	2500      	movs	r5, #0
 800434a:	e789      	b.n	8004260 <UART_SetConfig+0x688>
 800434c:	6a62      	ldr	r2, [r4, #36]	; 0x24
 800434e:	4b60      	ldr	r3, [pc, #384]	; (80044d0 <UART_SetConfig+0x8f8>)
 8004350:	f833 2012 	ldrh.w	r2, [r3, r2, lsl #1]
 8004354:	4b60      	ldr	r3, [pc, #384]	; (80044d8 <UART_SetConfig+0x900>)
 8004356:	fbb3 f2f2 	udiv	r2, r3, r2
 800435a:	6861      	ldr	r1, [r4, #4]
 800435c:	084b      	lsrs	r3, r1, #1
 800435e:	eb03 0342 	add.w	r3, r3, r2, lsl #1
 8004362:	fbb3 f3f1 	udiv	r3, r3, r1
 8004366:	b29b      	uxth	r3, r3
 8004368:	2500      	movs	r5, #0
 800436a:	e779      	b.n	8004260 <UART_SetConfig+0x688>
 800436c:	6a62      	ldr	r2, [r4, #36]	; 0x24
 800436e:	4b58      	ldr	r3, [pc, #352]	; (80044d0 <UART_SetConfig+0x8f8>)
 8004370:	f833 2012 	ldrh.w	r2, [r3, r2, lsl #1]
 8004374:	f44f 4300 	mov.w	r3, #32768	; 0x8000
 8004378:	fbb3 f2f2 	udiv	r2, r3, r2
 800437c:	6861      	ldr	r1, [r4, #4]
 800437e:	084b      	lsrs	r3, r1, #1
 8004380:	eb03 0342 	add.w	r3, r3, r2, lsl #1
 8004384:	fbb3 f3f1 	udiv	r3, r3, r1
 8004388:	b29b      	uxth	r3, r3
 800438a:	2500      	movs	r5, #0
 800438c:	e768      	b.n	8004260 <UART_SetConfig+0x688>
 800438e:	2501      	movs	r5, #1
 8004390:	2300      	movs	r3, #0
 8004392:	e765      	b.n	8004260 <UART_SetConfig+0x688>
 8004394:	f7fd ffa0 	bl	80022d8 <HAL_RCC_GetPCLK1Freq>
 8004398:	6a62      	ldr	r2, [r4, #36]	; 0x24
 800439a:	4b4d      	ldr	r3, [pc, #308]	; (80044d0 <UART_SetConfig+0x8f8>)
 800439c:	f833 3012 	ldrh.w	r3, [r3, r2, lsl #1]
 80043a0:	fbb0 f3f3 	udiv	r3, r0, r3
 80043a4:	6860      	ldr	r0, [r4, #4]
 80043a6:	eb03 0350 	add.w	r3, r3, r0, lsr #1
 80043aa:	fbb3 f3f0 	udiv	r3, r3, r0
 80043ae:	b29b      	uxth	r3, r3
 80043b0:	60eb      	str	r3, [r5, #12]
 80043b2:	2500      	movs	r5, #0
 80043b4:	e75b      	b.n	800426e <UART_SetConfig+0x696>
 80043b6:	f7fd ffa5 	bl	8002304 <HAL_RCC_GetPCLK2Freq>
 80043ba:	6a62      	ldr	r2, [r4, #36]	; 0x24
 80043bc:	4b44      	ldr	r3, [pc, #272]	; (80044d0 <UART_SetConfig+0x8f8>)
 80043be:	f833 3012 	ldrh.w	r3, [r3, r2, lsl #1]
 80043c2:	fbb0 f3f3 	udiv	r3, r0, r3
 80043c6:	6860      	ldr	r0, [r4, #4]
 80043c8:	eb03 0350 	add.w	r3, r3, r0, lsr #1
 80043cc:	fbb3 f3f0 	udiv	r3, r3, r0
 80043d0:	b29b      	uxth	r3, r3
 80043d2:	60eb      	str	r3, [r5, #12]
 80043d4:	2500      	movs	r5, #0
 80043d6:	e74a      	b.n	800426e <UART_SetConfig+0x696>
 80043d8:	a803      	add	r0, sp, #12
 80043da:	f7fe fd5d 	bl	8002e98 <HAL_RCCEx_GetPLL2ClockFreq>
 80043de:	6821      	ldr	r1, [r4, #0]
 80043e0:	6a62      	ldr	r2, [r4, #36]	; 0x24
 80043e2:	4b3b      	ldr	r3, [pc, #236]	; (80044d0 <UART_SetConfig+0x8f8>)
 80043e4:	f833 2012 	ldrh.w	r2, [r3, r2, lsl #1]
 80043e8:	9b04      	ldr	r3, [sp, #16]
 80043ea:	fbb3 f3f2 	udiv	r3, r3, r2
 80043ee:	6862      	ldr	r2, [r4, #4]
 80043f0:	eb03 0352 	add.w	r3, r3, r2, lsr #1
 80043f4:	fbb3 f3f2 	udiv	r3, r3, r2
 80043f8:	b29b      	uxth	r3, r3
 80043fa:	60cb      	str	r3, [r1, #12]
 80043fc:	2500      	movs	r5, #0
 80043fe:	e736      	b.n	800426e <UART_SetConfig+0x696>
 8004400:	4668      	mov	r0, sp
 8004402:	f7fe fe2d 	bl	8003060 <HAL_RCCEx_GetPLL3ClockFreq>
 8004406:	6821      	ldr	r1, [r4, #0]
 8004408:	6a62      	ldr	r2, [r4, #36]	; 0x24
 800440a:	4b31      	ldr	r3, [pc, #196]	; (80044d0 <UART_SetConfig+0x8f8>)
 800440c:	f833 2012 	ldrh.w	r2, [r3, r2, lsl #1]
 8004410:	9b01      	ldr	r3, [sp, #4]
 8004412:	fbb3 f3f2 	udiv	r3, r3, r2
 8004416:	6862      	ldr	r2, [r4, #4]
 8004418:	eb03 0352 	add.w	r3, r3, r2, lsr #1
 800441c:	fbb3 f3f2 	udiv	r3, r3, r2
 8004420:	b29b      	uxth	r3, r3
 8004422:	60cb      	str	r3, [r1, #12]
 8004424:	2500      	movs	r5, #0
 8004426:	e722      	b.n	800426e <UART_SetConfig+0x696>
 8004428:	4b2c      	ldr	r3, [pc, #176]	; (80044dc <UART_SetConfig+0x904>)
 800442a:	681b      	ldr	r3, [r3, #0]
 800442c:	f013 0f20 	tst.w	r3, #32
 8004430:	d014      	beq.n	800445c <UART_SetConfig+0x884>
 8004432:	4b2a      	ldr	r3, [pc, #168]	; (80044dc <UART_SetConfig+0x904>)
 8004434:	681a      	ldr	r2, [r3, #0]
 8004436:	f3c2 02c1 	ubfx	r2, r2, #3, #2
 800443a:	4b26      	ldr	r3, [pc, #152]	; (80044d4 <UART_SetConfig+0x8fc>)
 800443c:	40d3      	lsrs	r3, r2
 800443e:	6a61      	ldr	r1, [r4, #36]	; 0x24
 8004440:	4a23      	ldr	r2, [pc, #140]	; (80044d0 <UART_SetConfig+0x8f8>)
 8004442:	f832 2011 	ldrh.w	r2, [r2, r1, lsl #1]
 8004446:	fbb3 f3f2 	udiv	r3, r3, r2
 800444a:	6862      	ldr	r2, [r4, #4]
 800444c:	eb03 0352 	add.w	r3, r3, r2, lsr #1
 8004450:	fbb3 f3f2 	udiv	r3, r3, r2
 8004454:	b29b      	uxth	r3, r3
 8004456:	60eb      	str	r3, [r5, #12]
 8004458:	2500      	movs	r5, #0
 800445a:	e708      	b.n	800426e <UART_SetConfig+0x696>
 800445c:	6a62      	ldr	r2, [r4, #36]	; 0x24
 800445e:	4b1c      	ldr	r3, [pc, #112]	; (80044d0 <UART_SetConfig+0x8f8>)
 8004460:	f833 2012 	ldrh.w	r2, [r3, r2, lsl #1]
 8004464:	4b1b      	ldr	r3, [pc, #108]	; (80044d4 <UART_SetConfig+0x8fc>)
 8004466:	fbb3 f3f2 	udiv	r3, r3, r2
 800446a:	6862      	ldr	r2, [r4, #4]
 800446c:	eb03 0352 	add.w	r3, r3, r2, lsr #1
 8004470:	fbb3 f3f2 	udiv	r3, r3, r2
 8004474:	b29b      	uxth	r3, r3
 8004476:	60eb      	str	r3, [r5, #12]
 8004478:	2500      	movs	r5, #0
 800447a:	e6f8      	b.n	800426e <UART_SetConfig+0x696>
 800447c:	6a62      	ldr	r2, [r4, #36]	; 0x24
 800447e:	4b14      	ldr	r3, [pc, #80]	; (80044d0 <UART_SetConfig+0x8f8>)
 8004480:	f833 2012 	ldrh.w	r2, [r3, r2, lsl #1]
 8004484:	4b14      	ldr	r3, [pc, #80]	; (80044d8 <UART_SetConfig+0x900>)
 8004486:	fbb3 f3f2 	udiv	r3, r3, r2
 800448a:	6862      	ldr	r2, [r4, #4]
 800448c:	eb03 0352 	add.w	r3, r3, r2, lsr #1
 8004490:	fbb3 f3f2 	udiv	r3, r3, r2
 8004494:	b29b      	uxth	r3, r3
 8004496:	60eb      	str	r3, [r5, #12]
 8004498:	2500      	movs	r5, #0
 800449a:	e6e8      	b.n	800426e <UART_SetConfig+0x696>
 800449c:	6a62      	ldr	r2, [r4, #36]	; 0x24
 800449e:	4b0c      	ldr	r3, [pc, #48]	; (80044d0 <UART_SetConfig+0x8f8>)
 80044a0:	f833 2012 	ldrh.w	r2, [r3, r2, lsl #1]
 80044a4:	f44f 4300 	mov.w	r3, #32768	; 0x8000
 80044a8:	fbb3 f3f2 	udiv	r3, r3, r2
 80044ac:	6862      	ldr	r2, [r4, #4]
 80044ae:	eb03 0352 	add.w	r3, r3, r2, lsr #1
 80044b2:	fbb3 f3f2 	udiv	r3, r3, r2
 80044b6:	b29b      	uxth	r3, r3
 80044b8:	60eb      	str	r3, [r5, #12]
 80044ba:	2500      	movs	r5, #0
 80044bc:	e6d7      	b.n	800426e <UART_SetConfig+0x696>
 80044be:	2501      	movs	r5, #1
 80044c0:	e6d5      	b.n	800426e <UART_SetConfig+0x696>
 80044c2:	2501      	movs	r5, #1
 80044c4:	e6d3      	b.n	800426e <UART_SetConfig+0x696>
 80044c6:	2501      	movs	r5, #1
 80044c8:	e6d1      	b.n	800426e <UART_SetConfig+0x696>
 80044ca:	2501      	movs	r5, #1
 80044cc:	e6cf      	b.n	800426e <UART_SetConfig+0x696>
 80044ce:	bf00      	nop
 80044d0:	080057a4 	.word	0x080057a4
 80044d4:	03d09000 	.word	0x03d09000
 80044d8:	003d0900 	.word	0x003d0900
 80044dc:	58024400 	.word	0x58024400

080044e0 <UART_AdvFeatureConfig>:
 80044e0:	6b43      	ldr	r3, [r0, #52]	; 0x34
 80044e2:	f013 0f01 	tst.w	r3, #1
 80044e6:	d006      	beq.n	80044f6 <UART_AdvFeatureConfig+0x16>
 80044e8:	6802      	ldr	r2, [r0, #0]
 80044ea:	6853      	ldr	r3, [r2, #4]
 80044ec:	f423 3300 	bic.w	r3, r3, #131072	; 0x20000
 80044f0:	6b81      	ldr	r1, [r0, #56]	; 0x38
 80044f2:	430b      	orrs	r3, r1
 80044f4:	6053      	str	r3, [r2, #4]
 80044f6:	6b43      	ldr	r3, [r0, #52]	; 0x34
 80044f8:	f013 0f02 	tst.w	r3, #2
 80044fc:	d006      	beq.n	800450c <UART_AdvFeatureConfig+0x2c>
 80044fe:	6802      	ldr	r2, [r0, #0]
 8004500:	6853      	ldr	r3, [r2, #4]
 8004502:	f423 3380 	bic.w	r3, r3, #65536	; 0x10000
 8004506:	6bc1      	ldr	r1, [r0, #60]	; 0x3c
 8004508:	430b      	orrs	r3, r1
 800450a:	6053      	str	r3, [r2, #4]
 800450c:	6b43      	ldr	r3, [r0, #52]	; 0x34
 800450e:	f013 0f04 	tst.w	r3, #4
 8004512:	d006      	beq.n	8004522 <UART_AdvFeatureConfig+0x42>
 8004514:	6802      	ldr	r2, [r0, #0]
 8004516:	6853      	ldr	r3, [r2, #4]
 8004518:	f423 2380 	bic.w	r3, r3, #262144	; 0x40000
 800451c:	6c01      	ldr	r1, [r0, #64]	; 0x40
 800451e:	430b      	orrs	r3, r1
 8004520:	6053      	str	r3, [r2, #4]
 8004522:	6b43      	ldr	r3, [r0, #52]	; 0x34
 8004524:	f013 0f08 	tst.w	r3, #8
 8004528:	d006      	beq.n	8004538 <UART_AdvFeatureConfig+0x58>
 800452a:	6802      	ldr	r2, [r0, #0]
 800452c:	6853      	ldr	r3, [r2, #4]
 800452e:	f423 4300 	bic.w	r3, r3, #32768	; 0x8000
 8004532:	6c41      	ldr	r1, [r0, #68]	; 0x44
 8004534:	430b      	orrs	r3, r1
 8004536:	6053      	str	r3, [r2, #4]
 8004538:	6b43      	ldr	r3, [r0, #52]	; 0x34
 800453a:	f013 0f10 	tst.w	r3, #16
 800453e:	d006      	beq.n	800454e <UART_AdvFeatureConfig+0x6e>
 8004540:	6802      	ldr	r2, [r0, #0]
 8004542:	6893      	ldr	r3, [r2, #8]
 8004544:	f423 5380 	bic.w	r3, r3, #4096	; 0x1000
 8004548:	6c81      	ldr	r1, [r0, #72]	; 0x48
 800454a:	430b      	orrs	r3, r1
 800454c:	6093      	str	r3, [r2, #8]
 800454e:	6b43      	ldr	r3, [r0, #52]	; 0x34
 8004550:	f013 0f20 	tst.w	r3, #32
 8004554:	d006      	beq.n	8004564 <UART_AdvFeatureConfig+0x84>
 8004556:	6802      	ldr	r2, [r0, #0]
 8004558:	6893      	ldr	r3, [r2, #8]
 800455a:	f423 5300 	bic.w	r3, r3, #8192	; 0x2000
 800455e:	6cc1      	ldr	r1, [r0, #76]	; 0x4c
 8004560:	430b      	orrs	r3, r1
 8004562:	6093      	str	r3, [r2, #8]
 8004564:	6b43      	ldr	r3, [r0, #52]	; 0x34
 8004566:	f013 0f40 	tst.w	r3, #64	; 0x40
 800456a:	d00a      	beq.n	8004582 <UART_AdvFeatureConfig+0xa2>
 800456c:	6802      	ldr	r2, [r0, #0]
 800456e:	6853      	ldr	r3, [r2, #4]
 8004570:	f423 1380 	bic.w	r3, r3, #1048576	; 0x100000
 8004574:	6d01      	ldr	r1, [r0, #80]	; 0x50
 8004576:	430b      	orrs	r3, r1
 8004578:	6053      	str	r3, [r2, #4]
 800457a:	6d03      	ldr	r3, [r0, #80]	; 0x50
 800457c:	f5b3 1f80 	cmp.w	r3, #1048576	; 0x100000
 8004580:	d00b      	beq.n	800459a <UART_AdvFeatureConfig+0xba>
 8004582:	6b43      	ldr	r3, [r0, #52]	; 0x34
 8004584:	f013 0f80 	tst.w	r3, #128	; 0x80
 8004588:	d006      	beq.n	8004598 <UART_AdvFeatureConfig+0xb8>
 800458a:	6802      	ldr	r2, [r0, #0]
 800458c:	6853      	ldr	r3, [r2, #4]
 800458e:	f423 2300 	bic.w	r3, r3, #524288	; 0x80000
 8004592:	6d81      	ldr	r1, [r0, #88]	; 0x58
 8004594:	430b      	orrs	r3, r1
 8004596:	6053      	str	r3, [r2, #4]
 8004598:	4770      	bx	lr
 800459a:	6802      	ldr	r2, [r0, #0]
 800459c:	6853      	ldr	r3, [r2, #4]
 800459e:	f423 03c0 	bic.w	r3, r3, #6291456	; 0x600000
 80045a2:	6d41      	ldr	r1, [r0, #84]	; 0x54
 80045a4:	430b      	orrs	r3, r1
 80045a6:	6053      	str	r3, [r2, #4]
 80045a8:	e7eb      	b.n	8004582 <UART_AdvFeatureConfig+0xa2>

080045aa <UART_WaitOnFlagUntilTimeout>:
 80045aa:	e92d 41f0 	stmdb	sp!, {r4, r5, r6, r7, r8, lr}
 80045ae:	4605      	mov	r5, r0
 80045b0:	460f      	mov	r7, r1
 80045b2:	4616      	mov	r6, r2
 80045b4:	4698      	mov	r8, r3
 80045b6:	9c06      	ldr	r4, [sp, #24]
 80045b8:	682b      	ldr	r3, [r5, #0]
 80045ba:	69db      	ldr	r3, [r3, #28]
 80045bc:	ea37 0303 	bics.w	r3, r7, r3
 80045c0:	bf0c      	ite	eq
 80045c2:	2301      	moveq	r3, #1
 80045c4:	2300      	movne	r3, #0
 80045c6:	42b3      	cmp	r3, r6
 80045c8:	d11e      	bne.n	8004608 <UART_WaitOnFlagUntilTimeout+0x5e>
 80045ca:	f1b4 3fff 	cmp.w	r4, #4294967295	; 0xffffffff
 80045ce:	d0f3      	beq.n	80045b8 <UART_WaitOnFlagUntilTimeout+0xe>
 80045d0:	b12c      	cbz	r4, 80045de <UART_WaitOnFlagUntilTimeout+0x34>
 80045d2:	f7fc f843 	bl	800065c <HAL_GetTick>
 80045d6:	eba0 0008 	sub.w	r0, r0, r8
 80045da:	4284      	cmp	r4, r0
 80045dc:	d2ec      	bcs.n	80045b8 <UART_WaitOnFlagUntilTimeout+0xe>
 80045de:	682a      	ldr	r2, [r5, #0]
 80045e0:	6813      	ldr	r3, [r2, #0]
 80045e2:	f423 73d0 	bic.w	r3, r3, #416	; 0x1a0
 80045e6:	6013      	str	r3, [r2, #0]
 80045e8:	682a      	ldr	r2, [r5, #0]
 80045ea:	6893      	ldr	r3, [r2, #8]
 80045ec:	f023 0301 	bic.w	r3, r3, #1
 80045f0:	6093      	str	r3, [r2, #8]
 80045f2:	2320      	movs	r3, #32
 80045f4:	f885 3079 	strb.w	r3, [r5, #121]	; 0x79
 80045f8:	f885 307a 	strb.w	r3, [r5, #122]	; 0x7a
 80045fc:	2300      	movs	r3, #0
 80045fe:	f885 3078 	strb.w	r3, [r5, #120]	; 0x78
 8004602:	2003      	movs	r0, #3
 8004604:	e8bd 81f0 	ldmia.w	sp!, {r4, r5, r6, r7, r8, pc}
 8004608:	2000      	movs	r0, #0
 800460a:	e8bd 81f0 	ldmia.w	sp!, {r4, r5, r6, r7, r8, pc}

0800460e <UART_CheckIdleState>:
 800460e:	b530      	push	{r4, r5, lr}
 8004610:	b083      	sub	sp, #12
 8004612:	4604      	mov	r4, r0
 8004614:	2300      	movs	r3, #0
 8004616:	67c3      	str	r3, [r0, #124]	; 0x7c
 8004618:	f7fc f820 	bl	800065c <HAL_GetTick>
 800461c:	4605      	mov	r5, r0
 800461e:	6823      	ldr	r3, [r4, #0]
 8004620:	681b      	ldr	r3, [r3, #0]
 8004622:	f013 0f08 	tst.w	r3, #8
 8004626:	d10e      	bne.n	8004646 <UART_CheckIdleState+0x38>
 8004628:	6823      	ldr	r3, [r4, #0]
 800462a:	681b      	ldr	r3, [r3, #0]
 800462c:	f013 0f04 	tst.w	r3, #4
 8004630:	d117      	bne.n	8004662 <UART_CheckIdleState+0x54>
 8004632:	2320      	movs	r3, #32
 8004634:	f884 3079 	strb.w	r3, [r4, #121]	; 0x79
 8004638:	f884 307a 	strb.w	r3, [r4, #122]	; 0x7a
 800463c:	2000      	movs	r0, #0
 800463e:	f884 0078 	strb.w	r0, [r4, #120]	; 0x78
 8004642:	b003      	add	sp, #12
 8004644:	bd30      	pop	{r4, r5, pc}
 8004646:	f06f 437e 	mvn.w	r3, #4261412864	; 0xfe000000
 800464a:	9300      	str	r3, [sp, #0]
 800464c:	4603      	mov	r3, r0
 800464e:	2200      	movs	r2, #0
 8004650:	f44f 1100 	mov.w	r1, #2097152	; 0x200000
 8004654:	4620      	mov	r0, r4
 8004656:	f7ff ffa8 	bl	80045aa <UART_WaitOnFlagUntilTimeout>
 800465a:	2800      	cmp	r0, #0
 800465c:	d0e4      	beq.n	8004628 <UART_CheckIdleState+0x1a>
 800465e:	2003      	movs	r0, #3
 8004660:	e7ef      	b.n	8004642 <UART_CheckIdleState+0x34>
 8004662:	f06f 437e 	mvn.w	r3, #4261412864	; 0xfe000000
 8004666:	9300      	str	r3, [sp, #0]
 8004668:	462b      	mov	r3, r5
 800466a:	2200      	movs	r2, #0
 800466c:	f44f 0180 	mov.w	r1, #4194304	; 0x400000
 8004670:	4620      	mov	r0, r4
 8004672:	f7ff ff9a 	bl	80045aa <UART_WaitOnFlagUntilTimeout>
 8004676:	2800      	cmp	r0, #0
 8004678:	d0db      	beq.n	8004632 <UART_CheckIdleState+0x24>
 800467a:	2003      	movs	r0, #3
 800467c:	e7e1      	b.n	8004642 <UART_CheckIdleState+0x34>

0800467e <HAL_UART_Init>:
 800467e:	b378      	cbz	r0, 80046e0 <HAL_UART_Init+0x62>
 8004680:	b510      	push	{r4, lr}
 8004682:	4604      	mov	r4, r0
 8004684:	f890 3079 	ldrb.w	r3, [r0, #121]	; 0x79
 8004688:	b30b      	cbz	r3, 80046ce <HAL_UART_Init+0x50>
 800468a:	2324      	movs	r3, #36	; 0x24
 800468c:	f884 3079 	strb.w	r3, [r4, #121]	; 0x79
 8004690:	6822      	ldr	r2, [r4, #0]
 8004692:	6813      	ldr	r3, [r2, #0]
 8004694:	f023 0301 	bic.w	r3, r3, #1
 8004698:	6013      	str	r3, [r2, #0]
 800469a:	4620      	mov	r0, r4
 800469c:	f7ff fa9c 	bl	8003bd8 <UART_SetConfig>
 80046a0:	2801      	cmp	r0, #1
 80046a2:	d01f      	beq.n	80046e4 <HAL_UART_Init+0x66>
 80046a4:	6b63      	ldr	r3, [r4, #52]	; 0x34
 80046a6:	b9bb      	cbnz	r3, 80046d8 <HAL_UART_Init+0x5a>
 80046a8:	6822      	ldr	r2, [r4, #0]
 80046aa:	6853      	ldr	r3, [r2, #4]
 80046ac:	f423 4390 	bic.w	r3, r3, #18432	; 0x4800
 80046b0:	6053      	str	r3, [r2, #4]
 80046b2:	6822      	ldr	r2, [r4, #0]
 80046b4:	6893      	ldr	r3, [r2, #8]
 80046b6:	f023 032a 	bic.w	r3, r3, #42	; 0x2a
 80046ba:	6093      	str	r3, [r2, #8]
 80046bc:	6822      	ldr	r2, [r4, #0]
 80046be:	6813      	ldr	r3, [r2, #0]
 80046c0:	f043 0301 	orr.w	r3, r3, #1
 80046c4:	6013      	str	r3, [r2, #0]
 80046c6:	4620      	mov	r0, r4
 80046c8:	f7ff ffa1 	bl	800460e <UART_CheckIdleState>
 80046cc:	bd10      	pop	{r4, pc}
 80046ce:	f880 3078 	strb.w	r3, [r0, #120]	; 0x78
 80046d2:	f000 fefd 	bl	80054d0 <HAL_UART_MspInit>
 80046d6:	e7d8      	b.n	800468a <HAL_UART_Init+0xc>
 80046d8:	4620      	mov	r0, r4
 80046da:	f7ff ff01 	bl	80044e0 <UART_AdvFeatureConfig>
 80046de:	e7e3      	b.n	80046a8 <HAL_UART_Init+0x2a>
 80046e0:	2001      	movs	r0, #1
 80046e2:	4770      	bx	lr
 80046e4:	bd10      	pop	{r4, pc}
	...

080046e8 <USB_CoreInit>:
 80046e8:	b084      	sub	sp, #16
 80046ea:	b510      	push	{r4, lr}
 80046ec:	4604      	mov	r4, r0
 80046ee:	a803      	add	r0, sp, #12
 80046f0:	e880 000e 	stmia.w	r0, {r1, r2, r3}
 80046f4:	9b08      	ldr	r3, [sp, #32]
 80046f6:	2b01      	cmp	r3, #1
 80046f8:	d011      	beq.n	800471e <USB_CoreInit+0x36>
 80046fa:	68e3      	ldr	r3, [r4, #12]
 80046fc:	f043 0340 	orr.w	r3, r3, #64	; 0x40
 8004700:	60e3      	str	r3, [r4, #12]
 8004702:	4620      	mov	r0, r4
 8004704:	f000 f932 	bl	800496c <USB_CoreReset>
 8004708:	f44f 3380 	mov.w	r3, #65536	; 0x10000
 800470c:	63a3      	str	r3, [r4, #56]	; 0x38
 800470e:	9b06      	ldr	r3, [sp, #24]
 8004710:	2b01      	cmp	r3, #1
 8004712:	d01c      	beq.n	800474e <USB_CoreInit+0x66>
 8004714:	2000      	movs	r0, #0
 8004716:	e8bd 4010 	ldmia.w	sp!, {r4, lr}
 800471a:	b004      	add	sp, #16
 800471c:	4770      	bx	lr
 800471e:	6ba3      	ldr	r3, [r4, #56]	; 0x38
 8004720:	f423 3380 	bic.w	r3, r3, #65536	; 0x10000
 8004724:	63a3      	str	r3, [r4, #56]	; 0x38
 8004726:	68e2      	ldr	r2, [r4, #12]
 8004728:	4b0d      	ldr	r3, [pc, #52]	; (8004760 <USB_CoreInit+0x78>)
 800472a:	4013      	ands	r3, r2
 800472c:	60e3      	str	r3, [r4, #12]
 800472e:	68e3      	ldr	r3, [r4, #12]
 8004730:	f423 1340 	bic.w	r3, r3, #3145728	; 0x300000
 8004734:	60e3      	str	r3, [r4, #12]
 8004736:	9b0f      	ldr	r3, [sp, #60]	; 0x3c
 8004738:	2b01      	cmp	r3, #1
 800473a:	d003      	beq.n	8004744 <USB_CoreInit+0x5c>
 800473c:	4620      	mov	r0, r4
 800473e:	f000 f915 	bl	800496c <USB_CoreReset>
 8004742:	e7e4      	b.n	800470e <USB_CoreInit+0x26>
 8004744:	68e3      	ldr	r3, [r4, #12]
 8004746:	f443 1380 	orr.w	r3, r3, #1048576	; 0x100000
 800474a:	60e3      	str	r3, [r4, #12]
 800474c:	e7f6      	b.n	800473c <USB_CoreInit+0x54>
 800474e:	68a3      	ldr	r3, [r4, #8]
 8004750:	f043 030c 	orr.w	r3, r3, #12
 8004754:	60a3      	str	r3, [r4, #8]
 8004756:	68a3      	ldr	r3, [r4, #8]
 8004758:	f043 0320 	orr.w	r3, r3, #32
 800475c:	60a3      	str	r3, [r4, #8]
 800475e:	e7d9      	b.n	8004714 <USB_CoreInit+0x2c>
 8004760:	ffbdffbf 	.word	0xffbdffbf

08004764 <USB_DisableGlobalInt>:
 8004764:	6883      	ldr	r3, [r0, #8]
 8004766:	f023 0301 	bic.w	r3, r3, #1
 800476a:	6083      	str	r3, [r0, #8]
 800476c:	2000      	movs	r0, #0
 800476e:	4770      	bx	lr

08004770 <USB_SetCurrentMode>:
 8004770:	b508      	push	{r3, lr}
 8004772:	68c3      	ldr	r3, [r0, #12]
 8004774:	f023 43c0 	bic.w	r3, r3, #1610612736	; 0x60000000
 8004778:	60c3      	str	r3, [r0, #12]
 800477a:	2901      	cmp	r1, #1
 800477c:	d009      	beq.n	8004792 <USB_SetCurrentMode+0x22>
 800477e:	b919      	cbnz	r1, 8004788 <USB_SetCurrentMode+0x18>
 8004780:	68c3      	ldr	r3, [r0, #12]
 8004782:	f043 4380 	orr.w	r3, r3, #1073741824	; 0x40000000
 8004786:	60c3      	str	r3, [r0, #12]
 8004788:	2032      	movs	r0, #50	; 0x32
 800478a:	f7fb ff6d 	bl	8000668 <HAL_Delay>
 800478e:	2000      	movs	r0, #0
 8004790:	bd08      	pop	{r3, pc}
 8004792:	68c3      	ldr	r3, [r0, #12]
 8004794:	f043 5300 	orr.w	r3, r3, #536870912	; 0x20000000
 8004798:	60c3      	str	r3, [r0, #12]
 800479a:	e7f5      	b.n	8004788 <USB_SetCurrentMode+0x18>

0800479c <USB_DevInit>:
 800479c:	b084      	sub	sp, #16
 800479e:	b5f8      	push	{r3, r4, r5, r6, r7, lr}
 80047a0:	4605      	mov	r5, r0
 80047a2:	a807      	add	r0, sp, #28
 80047a4:	e880 000e 	stmia.w	r0, {r1, r2, r3}
 80047a8:	6bab      	ldr	r3, [r5, #56]	; 0x38
 80047aa:	f443 1300 	orr.w	r3, r3, #2097152	; 0x200000
 80047ae:	63ab      	str	r3, [r5, #56]	; 0x38
 80047b0:	9f11      	ldr	r7, [sp, #68]	; 0x44
 80047b2:	b95f      	cbnz	r7, 80047cc <USB_DevInit+0x30>
 80047b4:	6bab      	ldr	r3, [r5, #56]	; 0x38
 80047b6:	f423 1300 	bic.w	r3, r3, #2097152	; 0x200000
 80047ba:	63ab      	str	r3, [r5, #56]	; 0x38
 80047bc:	682b      	ldr	r3, [r5, #0]
 80047be:	f043 0340 	orr.w	r3, r3, #64	; 0x40
 80047c2:	602b      	str	r3, [r5, #0]
 80047c4:	682b      	ldr	r3, [r5, #0]
 80047c6:	f043 0380 	orr.w	r3, r3, #128	; 0x80
 80047ca:	602b      	str	r3, [r5, #0]
 80047cc:	462c      	mov	r4, r5
 80047ce:	2300      	movs	r3, #0
 80047d0:	f8c5 3e00 	str.w	r3, [r5, #3584]	; 0xe00
 80047d4:	f505 6600 	add.w	r6, r5, #2048	; 0x800
 80047d8:	f8d5 3800 	ldr.w	r3, [r5, #2048]	; 0x800
 80047dc:	f8c5 3800 	str.w	r3, [r5, #2048]	; 0x800
 80047e0:	9b0c      	ldr	r3, [sp, #48]	; 0x30
 80047e2:	2b01      	cmp	r3, #1
 80047e4:	d012      	beq.n	800480c <USB_DevInit+0x70>
 80047e6:	2103      	movs	r1, #3
 80047e8:	4628      	mov	r0, r5
 80047ea:	f000 f8ab 	bl	8004944 <USB_SetDevSpeed>
 80047ee:	2110      	movs	r1, #16
 80047f0:	4628      	mov	r0, r5
 80047f2:	f000 f881 	bl	80048f8 <USB_FlushTxFifo>
 80047f6:	4628      	mov	r0, r5
 80047f8:	f000 f892 	bl	8004920 <USB_FlushRxFifo>
 80047fc:	2300      	movs	r3, #0
 80047fe:	6133      	str	r3, [r6, #16]
 8004800:	6173      	str	r3, [r6, #20]
 8004802:	f04f 32ff 	mov.w	r2, #4294967295	; 0xffffffff
 8004806:	61b2      	str	r2, [r6, #24]
 8004808:	61f3      	str	r3, [r6, #28]
 800480a:	e014      	b.n	8004836 <USB_DevInit+0x9a>
 800480c:	9b09      	ldr	r3, [sp, #36]	; 0x24
 800480e:	b923      	cbnz	r3, 800481a <USB_DevInit+0x7e>
 8004810:	2100      	movs	r1, #0
 8004812:	4628      	mov	r0, r5
 8004814:	f000 f896 	bl	8004944 <USB_SetDevSpeed>
 8004818:	e7e9      	b.n	80047ee <USB_DevInit+0x52>
 800481a:	2101      	movs	r1, #1
 800481c:	4628      	mov	r0, r5
 800481e:	f000 f891 	bl	8004944 <USB_SetDevSpeed>
 8004822:	e7e4      	b.n	80047ee <USB_DevInit+0x52>
 8004824:	f04f 4090 	mov.w	r0, #1207959552	; 0x48000000
 8004828:	f8c2 0900 	str.w	r0, [r2, #2304]	; 0x900
 800482c:	2200      	movs	r2, #0
 800482e:	610a      	str	r2, [r1, #16]
 8004830:	22ff      	movs	r2, #255	; 0xff
 8004832:	608a      	str	r2, [r1, #8]
 8004834:	3301      	adds	r3, #1
 8004836:	9907      	ldr	r1, [sp, #28]
 8004838:	428b      	cmp	r3, r1
 800483a:	d20b      	bcs.n	8004854 <USB_DevInit+0xb8>
 800483c:	eb04 1243 	add.w	r2, r4, r3, lsl #5
 8004840:	f502 6110 	add.w	r1, r2, #2304	; 0x900
 8004844:	f8d2 0900 	ldr.w	r0, [r2, #2304]	; 0x900
 8004848:	2800      	cmp	r0, #0
 800484a:	dbeb      	blt.n	8004824 <USB_DevInit+0x88>
 800484c:	2000      	movs	r0, #0
 800484e:	f8c2 0900 	str.w	r0, [r2, #2304]	; 0x900
 8004852:	e7eb      	b.n	800482c <USB_DevInit+0x90>
 8004854:	2300      	movs	r3, #0
 8004856:	e008      	b.n	800486a <USB_DevInit+0xce>
 8004858:	f04f 4e90 	mov.w	lr, #1207959552	; 0x48000000
 800485c:	f8c2 eb00 	str.w	lr, [r2, #2816]	; 0xb00
 8004860:	2200      	movs	r2, #0
 8004862:	6102      	str	r2, [r0, #16]
 8004864:	22ff      	movs	r2, #255	; 0xff
 8004866:	6082      	str	r2, [r0, #8]
 8004868:	3301      	adds	r3, #1
 800486a:	428b      	cmp	r3, r1
 800486c:	d20d      	bcs.n	800488a <USB_DevInit+0xee>
 800486e:	eb04 1243 	add.w	r2, r4, r3, lsl #5
 8004872:	f502 6030 	add.w	r0, r2, #2816	; 0xb00
 8004876:	f8d2 eb00 	ldr.w	lr, [r2, #2816]	; 0xb00
 800487a:	f1be 0f00 	cmp.w	lr, #0
 800487e:	dbeb      	blt.n	8004858 <USB_DevInit+0xbc>
 8004880:	f04f 0e00 	mov.w	lr, #0
 8004884:	f8c2 eb00 	str.w	lr, [r2, #2816]	; 0xb00
 8004888:	e7ea      	b.n	8004860 <USB_DevInit+0xc4>
 800488a:	6933      	ldr	r3, [r6, #16]
 800488c:	f423 7380 	bic.w	r3, r3, #256	; 0x100
 8004890:	6133      	str	r3, [r6, #16]
 8004892:	9b0a      	ldr	r3, [sp, #40]	; 0x28
 8004894:	2b01      	cmp	r3, #1
 8004896:	d01a      	beq.n	80048ce <USB_DevInit+0x132>
 8004898:	2200      	movs	r2, #0
 800489a:	61aa      	str	r2, [r5, #24]
 800489c:	f06f 4280 	mvn.w	r2, #1073741824	; 0x40000000
 80048a0:	616a      	str	r2, [r5, #20]
 80048a2:	b91b      	cbnz	r3, 80048ac <USB_DevInit+0x110>
 80048a4:	69ab      	ldr	r3, [r5, #24]
 80048a6:	f043 0310 	orr.w	r3, r3, #16
 80048aa:	61ab      	str	r3, [r5, #24]
 80048ac:	69aa      	ldr	r2, [r5, #24]
 80048ae:	4b0e      	ldr	r3, [pc, #56]	; (80048e8 <USB_DevInit+0x14c>)
 80048b0:	4313      	orrs	r3, r2
 80048b2:	61ab      	str	r3, [r5, #24]
 80048b4:	9b0d      	ldr	r3, [sp, #52]	; 0x34
 80048b6:	b11b      	cbz	r3, 80048c0 <USB_DevInit+0x124>
 80048b8:	69ab      	ldr	r3, [r5, #24]
 80048ba:	f043 0308 	orr.w	r3, r3, #8
 80048be:	61ab      	str	r3, [r5, #24]
 80048c0:	2f01      	cmp	r7, #1
 80048c2:	d00c      	beq.n	80048de <USB_DevInit+0x142>
 80048c4:	2000      	movs	r0, #0
 80048c6:	e8bd 40f8 	ldmia.w	sp!, {r3, r4, r5, r6, r7, lr}
 80048ca:	b004      	add	sp, #16
 80048cc:	4770      	bx	lr
 80048ce:	4a07      	ldr	r2, [pc, #28]	; (80048ec <USB_DevInit+0x150>)
 80048d0:	6332      	str	r2, [r6, #48]	; 0x30
 80048d2:	6b31      	ldr	r1, [r6, #48]	; 0x30
 80048d4:	4a06      	ldr	r2, [pc, #24]	; (80048f0 <USB_DevInit+0x154>)
 80048d6:	430a      	orrs	r2, r1
 80048d8:	6332      	str	r2, [r6, #48]	; 0x30
 80048da:	6b32      	ldr	r2, [r6, #48]	; 0x30
 80048dc:	e7dc      	b.n	8004898 <USB_DevInit+0xfc>
 80048de:	69aa      	ldr	r2, [r5, #24]
 80048e0:	4b04      	ldr	r3, [pc, #16]	; (80048f4 <USB_DevInit+0x158>)
 80048e2:	4313      	orrs	r3, r2
 80048e4:	61ab      	str	r3, [r5, #24]
 80048e6:	e7ed      	b.n	80048c4 <USB_DevInit+0x128>
 80048e8:	803c3800 	.word	0x803c3800
 80048ec:	02000400 	.word	0x02000400
 80048f0:	08010003 	.word	0x08010003
 80048f4:	40000004 	.word	0x40000004

080048f8 <USB_FlushTxFifo>:
 80048f8:	0189      	lsls	r1, r1, #6
 80048fa:	f041 0120 	orr.w	r1, r1, #32
 80048fe:	6101      	str	r1, [r0, #16]
 8004900:	2300      	movs	r3, #0
 8004902:	3301      	adds	r3, #1
 8004904:	4a05      	ldr	r2, [pc, #20]	; (800491c <USB_FlushTxFifo+0x24>)
 8004906:	4293      	cmp	r3, r2
 8004908:	d805      	bhi.n	8004916 <USB_FlushTxFifo+0x1e>
 800490a:	6902      	ldr	r2, [r0, #16]
 800490c:	f012 0f20 	tst.w	r2, #32
 8004910:	d1f7      	bne.n	8004902 <USB_FlushTxFifo+0xa>
 8004912:	2000      	movs	r0, #0
 8004914:	4770      	bx	lr
 8004916:	2003      	movs	r0, #3
 8004918:	4770      	bx	lr
 800491a:	bf00      	nop
 800491c:	00030d40 	.word	0x00030d40

08004920 <USB_FlushRxFifo>:
 8004920:	2310      	movs	r3, #16
 8004922:	6103      	str	r3, [r0, #16]
 8004924:	2300      	movs	r3, #0
 8004926:	3301      	adds	r3, #1
 8004928:	4a05      	ldr	r2, [pc, #20]	; (8004940 <USB_FlushRxFifo+0x20>)
 800492a:	4293      	cmp	r3, r2
 800492c:	d805      	bhi.n	800493a <USB_FlushRxFifo+0x1a>
 800492e:	6902      	ldr	r2, [r0, #16]
 8004930:	f012 0f10 	tst.w	r2, #16
 8004934:	d1f7      	bne.n	8004926 <USB_FlushRxFifo+0x6>
 8004936:	2000      	movs	r0, #0
 8004938:	4770      	bx	lr
 800493a:	2003      	movs	r0, #3
 800493c:	4770      	bx	lr
 800493e:	bf00      	nop
 8004940:	00030d40 	.word	0x00030d40

08004944 <USB_SetDevSpeed>:
 8004944:	f8d0 3800 	ldr.w	r3, [r0, #2048]	; 0x800
 8004948:	4319      	orrs	r1, r3
 800494a:	f8c0 1800 	str.w	r1, [r0, #2048]	; 0x800
 800494e:	2000      	movs	r0, #0
 8004950:	4770      	bx	lr

08004952 <USB_DevDisconnect>:
 8004952:	b508      	push	{r3, lr}
 8004954:	f8d0 3804 	ldr.w	r3, [r0, #2052]	; 0x804
 8004958:	f043 0302 	orr.w	r3, r3, #2
 800495c:	f8c0 3804 	str.w	r3, [r0, #2052]	; 0x804
 8004960:	2003      	movs	r0, #3
 8004962:	f7fb fe81 	bl	8000668 <HAL_Delay>
 8004966:	2000      	movs	r0, #0
 8004968:	bd08      	pop	{r3, pc}
	...

0800496c <USB_CoreReset>:
 800496c:	2300      	movs	r3, #0
 800496e:	3301      	adds	r3, #1
 8004970:	4a0c      	ldr	r2, [pc, #48]	; (80049a4 <USB_CoreReset+0x38>)
 8004972:	4293      	cmp	r3, r2
 8004974:	d811      	bhi.n	800499a <USB_CoreReset+0x2e>
 8004976:	6902      	ldr	r2, [r0, #16]
 8004978:	2a00      	cmp	r2, #0
 800497a:	daf8      	bge.n	800496e <USB_CoreReset+0x2>
 800497c:	6903      	ldr	r3, [r0, #16]
 800497e:	f043 0301 	orr.w	r3, r3, #1
 8004982:	6103      	str	r3, [r0, #16]
 8004984:	2300      	movs	r3, #0
 8004986:	3301      	adds	r3, #1
 8004988:	4a06      	ldr	r2, [pc, #24]	; (80049a4 <USB_CoreReset+0x38>)
 800498a:	4293      	cmp	r3, r2
 800498c:	d807      	bhi.n	800499e <USB_CoreReset+0x32>
 800498e:	6902      	ldr	r2, [r0, #16]
 8004990:	f012 0f01 	tst.w	r2, #1
 8004994:	d1f7      	bne.n	8004986 <USB_CoreReset+0x1a>
 8004996:	2000      	movs	r0, #0
 8004998:	4770      	bx	lr
 800499a:	2003      	movs	r0, #3
 800499c:	4770      	bx	lr
 800499e:	2003      	movs	r0, #3
 80049a0:	4770      	bx	lr
 80049a2:	bf00      	nop
 80049a4:	00030d40 	.word	0x00030d40

080049a8 <AT_N5110LCD_write_buffer>:

	return N5110_OK;
}

static void AT_N5110LCD_write_buffer(AT_N5110_LCD_handle* instance, uint8_t *data, uint32_t size)
{
 80049a8:	b570      	push	{r4, r5, r6, lr}
 80049aa:	4604      	mov	r4, r0
 80049ac:	460d      	mov	r5, r1
 80049ae:	4616      	mov	r6, r2
	instance->functions.reset_gpio(instance->pins.csPort, instance->pins.csPin);
 80049b0:	6a83      	ldr	r3, [r0, #40]	; 0x28
 80049b2:	6881      	ldr	r1, [r0, #8]
 80049b4:	6840      	ldr	r0, [r0, #4]
 80049b6:	4798      	blx	r3
	instance->functions.spi_transmit(data, size);
 80049b8:	6ae3      	ldr	r3, [r4, #44]	; 0x2c
 80049ba:	4631      	mov	r1, r6
 80049bc:	4628      	mov	r0, r5
 80049be:	4798      	blx	r3
	instance->functions.set_gpio(instance->pins.csPort, instance->pins.csPin);
 80049c0:	6a63      	ldr	r3, [r4, #36]	; 0x24
 80049c2:	68a1      	ldr	r1, [r4, #8]
 80049c4:	6860      	ldr	r0, [r4, #4]
 80049c6:	4798      	blx	r3
}
 80049c8:	bd70      	pop	{r4, r5, r6, pc}

080049ca <AT_N5110LCD_write_buffer_dma>:

static void AT_N5110LCD_write_buffer_dma(AT_N5110_LCD_handle* instance, uint8_t *data, uint32_t size)
{
 80049ca:	b510      	push	{r4, lr}
 80049cc:	460c      	mov	r4, r1
	instance->functions.spi_transmit_dma(data, size);
 80049ce:	6b03      	ldr	r3, [r0, #48]	; 0x30
 80049d0:	4611      	mov	r1, r2
 80049d2:	4620      	mov	r0, r4
 80049d4:	4798      	blx	r3
}
 80049d6:	bd10      	pop	{r4, pc}

080049d8 <AT_N5110LCD_set_reset>:

static void AT_N5110LCD_set_reset(AT_N5110_LCD_handle* instance)
{
 80049d8:	b508      	push	{r3, lr}
	instance->functions.reset_gpio(instance->pins.RstPort, instance->pins.RstPin);
 80049da:	6a83      	ldr	r3, [r0, #40]	; 0x28
 80049dc:	6981      	ldr	r1, [r0, #24]
 80049de:	6940      	ldr	r0, [r0, #20]
 80049e0:	4798      	blx	r3
}
 80049e2:	bd08      	pop	{r3, pc}

080049e4 <AT_N5110LCD_clear_reset>:

static void AT_N5110LCD_clear_reset(AT_N5110_LCD_handle* instance)
{
 80049e4:	b508      	push	{r3, lr}
	instance->functions.set_gpio(instance->pins.RstPort, instance->pins.RstPin);
 80049e6:	6a43      	ldr	r3, [r0, #36]	; 0x24
 80049e8:	6981      	ldr	r1, [r0, #24]
 80049ea:	6940      	ldr	r0, [r0, #20]
 80049ec:	4798      	blx	r3
}
 80049ee:	bd08      	pop	{r3, pc}

080049f0 <AT_N5110LCD_reset_duration>:

static void AT_N5110LCD_reset_duration(AT_N5110_LCD_handle* instance, uint32_t duration_ms)
{
 80049f0:	b538      	push	{r3, r4, r5, lr}
 80049f2:	4604      	mov	r4, r0
 80049f4:	460d      	mov	r5, r1
	static uint32_t timeBefore;
	timeBefore = instance->functions.get_time_ms();
 80049f6:	6a03      	ldr	r3, [r0, #32]
 80049f8:	4798      	blx	r3
 80049fa:	4b08      	ldr	r3, [pc, #32]	; (8004a1c <AT_N5110LCD_reset_duration+0x2c>)
 80049fc:	6018      	str	r0, [r3, #0]
	AT_N5110LCD_set_reset(instance);
 80049fe:	4620      	mov	r0, r4
 8004a00:	f7ff ffea 	bl	80049d8 <AT_N5110LCD_set_reset>

	// wait for a while
	while (instance->functions.get_time_ms() - timeBefore < duration_ms );
 8004a04:	6a23      	ldr	r3, [r4, #32]
 8004a06:	4798      	blx	r3
 8004a08:	4b04      	ldr	r3, [pc, #16]	; (8004a1c <AT_N5110LCD_reset_duration+0x2c>)
 8004a0a:	681b      	ldr	r3, [r3, #0]
 8004a0c:	1ac0      	subs	r0, r0, r3
 8004a0e:	42a8      	cmp	r0, r5
 8004a10:	d3f8      	bcc.n	8004a04 <AT_N5110LCD_reset_duration+0x14>

	AT_N5110LCD_clear_reset(instance);
 8004a12:	4620      	mov	r0, r4
 8004a14:	f7ff ffe6 	bl	80049e4 <AT_N5110LCD_clear_reset>
}
 8004a18:	bd38      	pop	{r3, r4, r5, pc}
 8004a1a:	bf00      	nop
 8004a1c:	2000015c 	.word	0x2000015c

08004a20 <AT_N5110LCD_send_data>:

static void AT_N5110LCD_send_data(AT_N5110_LCD_handle* instance, uint8_t data)
{
 8004a20:	b530      	push	{r4, r5, lr}
 8004a22:	b083      	sub	sp, #12
 8004a24:	4604      	mov	r4, r0
 8004a26:	ad02      	add	r5, sp, #8
 8004a28:	f805 1d01 	strb.w	r1, [r5, #-1]!
	instance->functions.set_gpio(instance->pins.DCPort, instance->pins.DCPin);
 8004a2c:	6a43      	ldr	r3, [r0, #36]	; 0x24
 8004a2e:	6901      	ldr	r1, [r0, #16]
 8004a30:	68c0      	ldr	r0, [r0, #12]
 8004a32:	4798      	blx	r3
	AT_N5110LCD_write_buffer(instance, &data, 1);
 8004a34:	2201      	movs	r2, #1
 8004a36:	4629      	mov	r1, r5
 8004a38:	4620      	mov	r0, r4
 8004a3a:	f7ff ffb5 	bl	80049a8 <AT_N5110LCD_write_buffer>
}
 8004a3e:	b003      	add	sp, #12
 8004a40:	bd30      	pop	{r4, r5, pc}

08004a42 <AT_N5110LCD_send_command>:

static void AT_N5110LCD_send_command(AT_N5110_LCD_handle* instance, uint8_t data)
{
 8004a42:	b530      	push	{r4, r5, lr}
 8004a44:	b083      	sub	sp, #12
 8004a46:	4604      	mov	r4, r0
 8004a48:	ad02      	add	r5, sp, #8
 8004a4a:	f805 1d01 	strb.w	r1, [r5, #-1]!
	instance->functions.reset_gpio(instance->pins.DCPort, instance->pins.DCPin);
 8004a4e:	6a83      	ldr	r3, [r0, #40]	; 0x28
 8004a50:	6901      	ldr	r1, [r0, #16]
 8004a52:	68c0      	ldr	r0, [r0, #12]
 8004a54:	4798      	blx	r3
	AT_N5110LCD_write_buffer(instance, &data, 1);
 8004a56:	2201      	movs	r2, #1
 8004a58:	4629      	mov	r1, r5
 8004a5a:	4620      	mov	r0, r4
 8004a5c:	f7ff ffa4 	bl	80049a8 <AT_N5110LCD_write_buffer>
}
 8004a60:	b003      	add	sp, #12
 8004a62:	bd30      	pop	{r4, r5, pc}

08004a64 <AT_N5110LCD_clear>:

static void AT_N5110LCD_clear(AT_N5110_LCD_handle* instance)
{
 8004a64:	b538      	push	{r3, r4, r5, lr}
 8004a66:	4605      	mov	r5, r0
	for(int i=0; i<N5110_TOTAL_ADDR_SIZE; i++)
 8004a68:	2400      	movs	r4, #0
 8004a6a:	e004      	b.n	8004a76 <AT_N5110LCD_clear+0x12>
		AT_N5110LCD_send_data(instance, 0x00);
 8004a6c:	2100      	movs	r1, #0
 8004a6e:	4628      	mov	r0, r5
 8004a70:	f7ff ffd6 	bl	8004a20 <AT_N5110LCD_send_data>
	for(int i=0; i<N5110_TOTAL_ADDR_SIZE; i++)
 8004a74:	3401      	adds	r4, #1
 8004a76:	f5b4 7ffc 	cmp.w	r4, #504	; 0x1f8
 8004a7a:	dbf7      	blt.n	8004a6c <AT_N5110LCD_clear+0x8>
}
 8004a7c:	bd38      	pop	{r3, r4, r5, pc}

08004a7e <AT_N5110LCD_init_hw>:
{
 8004a7e:	b510      	push	{r4, lr}
 8004a80:	4604      	mov	r4, r0
	AT_N5110LCD_reset_duration(instance, 500);
 8004a82:	f44f 71fa 	mov.w	r1, #500	; 0x1f4
 8004a86:	f7ff ffb3 	bl	80049f0 <AT_N5110LCD_reset_duration>
	AT_N5110LCD_send_command(instance, N5110_FS | N5110_FS_EXTENDED_INST_SET);
 8004a8a:	2121      	movs	r1, #33	; 0x21
 8004a8c:	4620      	mov	r0, r4
 8004a8e:	f7ff ffd8 	bl	8004a42 <AT_N5110LCD_send_command>
	AT_N5110LCD_send_command(instance, N5110_BS | 3);
 8004a92:	2113      	movs	r1, #19
 8004a94:	4620      	mov	r0, r4
 8004a96:	f7ff ffd4 	bl	8004a42 <AT_N5110LCD_send_command>
	AT_N5110LCD_send_command(instance, N5110_SETVOP | 0x3F);
 8004a9a:	21bf      	movs	r1, #191	; 0xbf
 8004a9c:	4620      	mov	r0, r4
 8004a9e:	f7ff ffd0 	bl	8004a42 <AT_N5110LCD_send_command>
	AT_N5110LCD_send_command(instance, N5110_FS);
 8004aa2:	2120      	movs	r1, #32
 8004aa4:	4620      	mov	r0, r4
 8004aa6:	f7ff ffcc 	bl	8004a42 <AT_N5110LCD_send_command>
	AT_N5110LCD_send_command(instance, N5110_DC | N5110_DC_NORMAL_MODE);
 8004aaa:	210c      	movs	r1, #12
 8004aac:	4620      	mov	r0, r4
 8004aae:	f7ff ffc8 	bl	8004a42 <AT_N5110LCD_send_command>
	AT_N5110LCD_clear(instance);
 8004ab2:	4620      	mov	r0, r4
 8004ab4:	f7ff ffd6 	bl	8004a64 <AT_N5110LCD_clear>
}
 8004ab8:	bd10      	pop	{r4, pc}

08004aba <AT_N5110LCD_open>:
{
 8004aba:	b508      	push	{r3, lr}
	AT_N5110_LCD_handle *instance = (AT_N5110_LCD_handle*)malloc(sizeof (AT_N5110_LCD_handle));
 8004abc:	2034      	movs	r0, #52	; 0x34
 8004abe:	f000 fdd7 	bl	8005670 <malloc>
}
 8004ac2:	bd08      	pop	{r3, pc}

08004ac4 <AT_N5110LCD_init>:
	if (instance != NULL)
 8004ac4:	b168      	cbz	r0, 8004ae2 <AT_N5110LCD_init+0x1e>
{
 8004ac6:	b510      	push	{r4, lr}
 8004ac8:	4604      	mov	r4, r0
		instance->frameBuffer = (uint8_t*)0x30000000;
 8004aca:	f04f 5040 	mov.w	r0, #805306368	; 0x30000000
 8004ace:	6020      	str	r0, [r4, #0]
		memset(instance->frameBuffer, 0, N5110_TOTAL_ADDR_SIZE);
 8004ad0:	f44f 72fc 	mov.w	r2, #504	; 0x1f8
 8004ad4:	2100      	movs	r1, #0
 8004ad6:	f000 fdd3 	bl	8005680 <memset>
		AT_N5110LCD_init_hw(instance);
 8004ada:	4620      	mov	r0, r4
 8004adc:	f7ff ffcf 	bl	8004a7e <AT_N5110LCD_init_hw>
}
 8004ae0:	bd10      	pop	{r4, pc}
 8004ae2:	4770      	bx	lr

08004ae4 <AT_N5110LCD_update_display>:
{
 8004ae4:	b510      	push	{r4, lr}
 8004ae6:	4604      	mov	r4, r0
	AT_N5110LCD_send_command(instance, N5110_SETY | 0);
 8004ae8:	2140      	movs	r1, #64	; 0x40
 8004aea:	f7ff ffaa 	bl	8004a42 <AT_N5110LCD_send_command>
	AT_N5110LCD_send_command(instance, N5110_SETX | 0);
 8004aee:	2180      	movs	r1, #128	; 0x80
 8004af0:	4620      	mov	r0, r4
 8004af2:	f7ff ffa6 	bl	8004a42 <AT_N5110LCD_send_command>
	instance->functions.set_gpio(instance->pins.DCPort, instance->pins.DCPin);
 8004af6:	6a63      	ldr	r3, [r4, #36]	; 0x24
 8004af8:	6921      	ldr	r1, [r4, #16]
 8004afa:	68e0      	ldr	r0, [r4, #12]
 8004afc:	4798      	blx	r3
	AT_N5110LCD_write_buffer_dma(instance, instance->frameBuffer, N5110_TOTAL_ADDR_SIZE);
 8004afe:	f44f 72fc 	mov.w	r2, #504	; 0x1f8
 8004b02:	6821      	ldr	r1, [r4, #0]
 8004b04:	4620      	mov	r0, r4
 8004b06:	f7ff ff60 	bl	80049ca <AT_N5110LCD_write_buffer_dma>
}
 8004b0a:	bd10      	pop	{r4, pc}

08004b0c <AT_N5110LCD_get_pixel>:
	if (X > N5110_WIDTH_PIXELS)
 8004b0c:	2954      	cmp	r1, #84	; 0x54
 8004b0e:	d811      	bhi.n	8004b34 <AT_N5110LCD_get_pixel+0x28>
	if (Y > N5110_HEIGHT_PIXELS)
 8004b10:	2a30      	cmp	r2, #48	; 0x30
 8004b12:	d812      	bhi.n	8004b3a <AT_N5110LCD_get_pixel+0x2e>
{
 8004b14:	b430      	push	{r4, r5}
	*pixel = (instance->frameBuffer[X + (Y/8) * N5110_X_ADDR_LENGTH] & (1 << (Y%8)));
 8004b16:	6804      	ldr	r4, [r0, #0]
 8004b18:	08d0      	lsrs	r0, r2, #3
 8004b1a:	2554      	movs	r5, #84	; 0x54
 8004b1c:	fb05 1100 	mla	r1, r5, r0, r1
 8004b20:	5661      	ldrsb	r1, [r4, r1]
 8004b22:	f002 0207 	and.w	r2, r2, #7
 8004b26:	2001      	movs	r0, #1
 8004b28:	fa00 f202 	lsl.w	r2, r0, r2
 8004b2c:	400a      	ands	r2, r1
 8004b2e:	701a      	strb	r2, [r3, #0]
}
 8004b30:	bc30      	pop	{r4, r5}
 8004b32:	4770      	bx	lr
		return N5110_OUT_OF_FRAMEBUFFER_X;
 8004b34:	f06f 0001 	mvn.w	r0, #1
 8004b38:	4770      	bx	lr
		return N5110_OUT_OF_FRAMEBUFFER_Y;
 8004b3a:	f04f 30ff 	mov.w	r0, #4294967295	; 0xffffffff
}
 8004b3e:	4770      	bx	lr

08004b40 <AT_N5110LCD_set_pixel>:
	if (X > N5110_WIDTH_PIXELS)
 8004b40:	2954      	cmp	r1, #84	; 0x54
 8004b42:	d812      	bhi.n	8004b6a <AT_N5110LCD_set_pixel+0x2a>
	if (Y > N5110_HEIGHT_PIXELS)
 8004b44:	2a30      	cmp	r2, #48	; 0x30
 8004b46:	d813      	bhi.n	8004b70 <AT_N5110LCD_set_pixel+0x30>
{
 8004b48:	b410      	push	{r4}
	instance->frameBuffer[X + (Y/8) * N5110_X_ADDR_LENGTH] |= 1 << (Y%8);
 8004b4a:	6804      	ldr	r4, [r0, #0]
 8004b4c:	08d3      	lsrs	r3, r2, #3
 8004b4e:	2054      	movs	r0, #84	; 0x54
 8004b50:	fb00 1103 	mla	r1, r0, r3, r1
 8004b54:	f002 0207 	and.w	r2, r2, #7
 8004b58:	2001      	movs	r0, #1
 8004b5a:	fa00 f202 	lsl.w	r2, r0, r2
 8004b5e:	5c63      	ldrb	r3, [r4, r1]
 8004b60:	431a      	orrs	r2, r3
 8004b62:	5462      	strb	r2, [r4, r1]
}
 8004b64:	f85d 4b04 	ldr.w	r4, [sp], #4
 8004b68:	4770      	bx	lr
		return N5110_OUT_OF_FRAMEBUFFER_X;
 8004b6a:	f06f 0001 	mvn.w	r0, #1
 8004b6e:	4770      	bx	lr
		return N5110_OUT_OF_FRAMEBUFFER_Y;
 8004b70:	f04f 30ff 	mov.w	r0, #4294967295	; 0xffffffff
}
 8004b74:	4770      	bx	lr

08004b76 <AT_N5110LCD_clear_pixel>:
	if (X > N5110_WIDTH_PIXELS)
 8004b76:	2954      	cmp	r1, #84	; 0x54
 8004b78:	d813      	bhi.n	8004ba2 <AT_N5110LCD_clear_pixel+0x2c>
	if (Y > N5110_HEIGHT_PIXELS)
 8004b7a:	2a30      	cmp	r2, #48	; 0x30
 8004b7c:	d814      	bhi.n	8004ba8 <AT_N5110LCD_clear_pixel+0x32>
{
 8004b7e:	b410      	push	{r4}
	instance->frameBuffer[X + (Y/8) * N5110_X_ADDR_LENGTH] &= ~(1 << (Y%8));
 8004b80:	6804      	ldr	r4, [r0, #0]
 8004b82:	08d3      	lsrs	r3, r2, #3
 8004b84:	2054      	movs	r0, #84	; 0x54
 8004b86:	fb00 1103 	mla	r1, r0, r3, r1
 8004b8a:	f002 0207 	and.w	r2, r2, #7
 8004b8e:	2001      	movs	r0, #1
 8004b90:	fa00 f202 	lsl.w	r2, r0, r2
 8004b94:	5c63      	ldrb	r3, [r4, r1]
 8004b96:	ea23 0202 	bic.w	r2, r3, r2
 8004b9a:	5462      	strb	r2, [r4, r1]
}
 8004b9c:	f85d 4b04 	ldr.w	r4, [sp], #4
 8004ba0:	4770      	bx	lr
		return N5110_OUT_OF_FRAMEBUFFER_X;
 8004ba2:	f06f 0001 	mvn.w	r0, #1
 8004ba6:	4770      	bx	lr
		return N5110_OUT_OF_FRAMEBUFFER_Y;
 8004ba8:	f04f 30ff 	mov.w	r0, #4294967295	; 0xffffffff
}
 8004bac:	4770      	bx	lr

08004bae <AT_N5110LCD_draw_pixel>:
{
 8004bae:	b508      	push	{r3, lr}
	if (pixel > 0)
 8004bb0:	b913      	cbnz	r3, 8004bb8 <AT_N5110LCD_draw_pixel+0xa>
		return AT_N5110LCD_clear_pixel(instance, X, Y);
 8004bb2:	f7ff ffe0 	bl	8004b76 <AT_N5110LCD_clear_pixel>
}
 8004bb6:	bd08      	pop	{r3, pc}
		return AT_N5110LCD_set_pixel(instance, X, Y);
 8004bb8:	f7ff ffc2 	bl	8004b40 <AT_N5110LCD_set_pixel>
 8004bbc:	e7fb      	b.n	8004bb6 <AT_N5110LCD_draw_pixel+0x8>

08004bbe <AT_N5110LCD_print_char>:
{
 8004bbe:	e92d 4ff0 	stmdb	sp!, {r4, r5, r6, r7, r8, r9, sl, fp, lr}
 8004bc2:	b083      	sub	sp, #12
 8004bc4:	f8dd 9030 	ldr.w	r9, [sp, #48]	; 0x30
	if (X > N5110_WIDTH_PIXELS)
 8004bc8:	2b54      	cmp	r3, #84	; 0x54
 8004bca:	dc42      	bgt.n	8004c52 <AT_N5110LCD_print_char+0x94>
	if (Y > N5110_HEIGHT_PIXELS)
 8004bcc:	f1b9 0f30 	cmp.w	r9, #48	; 0x30
 8004bd0:	dc42      	bgt.n	8004c58 <AT_N5110LCD_print_char+0x9a>
 8004bd2:	461f      	mov	r7, r3
 8004bd4:	4693      	mov	fp, r2
 8004bd6:	468a      	mov	sl, r1
 8004bd8:	9001      	str	r0, [sp, #4]
	for (int k=0; k<font->Height; k++)
 8004bda:	2600      	movs	r6, #0
 8004bdc:	f8ba 3006 	ldrh.w	r3, [sl, #6]
 8004be0:	42b3      	cmp	r3, r6
 8004be2:	dd34      	ble.n	8004c4e <AT_N5110LCD_print_char+0x90>
		for (int s=0; s<INTEGER_DIV_CEIL(font->Width, 8); s++)
 8004be4:	2500      	movs	r5, #0
 8004be6:	e000      	b.n	8004bea <AT_N5110LCD_print_char+0x2c>
 8004be8:	3501      	adds	r5, #1
 8004bea:	f8ba 2004 	ldrh.w	r2, [sl, #4]
 8004bee:	f012 0307 	ands.w	r3, r2, #7
 8004bf2:	bf18      	it	ne
 8004bf4:	2301      	movne	r3, #1
 8004bf6:	eb03 03d2 	add.w	r3, r3, r2, lsr #3
 8004bfa:	42ab      	cmp	r3, r5
 8004bfc:	dd25      	ble.n	8004c4a <AT_N5110LCD_print_char+0x8c>
			uint8_t sutunx = font->table[INTEGER_DIV_CEIL(font->Width, 8) * font->Height * (character - 0x20) + k*INTEGER_DIV_CEIL(font->Width, 8) + s];
 8004bfe:	f8da 2000 	ldr.w	r2, [sl]
 8004c02:	f8ba 1006 	ldrh.w	r1, [sl, #6]
 8004c06:	fb03 f101 	mul.w	r1, r3, r1
 8004c0a:	f1ab 0020 	sub.w	r0, fp, #32
 8004c0e:	fb06 f303 	mul.w	r3, r6, r3
 8004c12:	fb00 3301 	mla	r3, r0, r1, r3
 8004c16:	442b      	add	r3, r5
 8004c18:	f812 8003 	ldrb.w	r8, [r2, r3]
			for (int l=0; l<8; l++)
 8004c1c:	2400      	movs	r4, #0
 8004c1e:	2c07      	cmp	r4, #7
 8004c20:	dce2      	bgt.n	8004be8 <AT_N5110LCD_print_char+0x2a>
				if (AT_N5110LCD_draw_pixel(instance, X + s*8 + l, Y + k, sutunx & (0x80>>l)) == N5110_OUT_OF_FRAMEBUFFER_Y)
 8004c22:	eb07 01c5 	add.w	r1, r7, r5, lsl #3
 8004c26:	2380      	movs	r3, #128	; 0x80
 8004c28:	4123      	asrs	r3, r4
 8004c2a:	eb09 0206 	add.w	r2, r9, r6
 8004c2e:	fa54 f181 	uxtab	r1, r4, r1
 8004c32:	ea03 0308 	and.w	r3, r3, r8
 8004c36:	b2d2      	uxtb	r2, r2
 8004c38:	b2c9      	uxtb	r1, r1
 8004c3a:	9801      	ldr	r0, [sp, #4]
 8004c3c:	f7ff ffb7 	bl	8004bae <AT_N5110LCD_draw_pixel>
 8004c40:	f1b0 3fff 	cmp.w	r0, #4294967295	; 0xffffffff
 8004c44:	d00b      	beq.n	8004c5e <AT_N5110LCD_print_char+0xa0>
			for (int l=0; l<8; l++)
 8004c46:	3401      	adds	r4, #1
 8004c48:	e7e9      	b.n	8004c1e <AT_N5110LCD_print_char+0x60>
	for (int k=0; k<font->Height; k++)
 8004c4a:	3601      	adds	r6, #1
 8004c4c:	e7c6      	b.n	8004bdc <AT_N5110LCD_print_char+0x1e>
	return N5110_OK;
 8004c4e:	2001      	movs	r0, #1
 8004c50:	e006      	b.n	8004c60 <AT_N5110LCD_print_char+0xa2>
		return N5110_OUT_OF_FRAMEBUFFER_X;
 8004c52:	f06f 0001 	mvn.w	r0, #1
 8004c56:	e003      	b.n	8004c60 <AT_N5110LCD_print_char+0xa2>
		return N5110_OUT_OF_FRAMEBUFFER_Y;
 8004c58:	f04f 30ff 	mov.w	r0, #4294967295	; 0xffffffff
 8004c5c:	e000      	b.n	8004c60 <AT_N5110LCD_print_char+0xa2>
					return N5110_OK;
 8004c5e:	2001      	movs	r0, #1
}
 8004c60:	b003      	add	sp, #12
 8004c62:	e8bd 8ff0 	ldmia.w	sp!, {r4, r5, r6, r7, r8, r9, sl, fp, pc}

08004c66 <AT_N5110LCD_print_string>:
{
 8004c66:	e92d 47f0 	stmdb	sp!, {r4, r5, r6, r7, r8, r9, sl, lr}
 8004c6a:	b082      	sub	sp, #8
 8004c6c:	f8dd 9028 	ldr.w	r9, [sp, #40]	; 0x28
 8004c70:	9f0b      	ldr	r7, [sp, #44]	; 0x2c
	if (X > N5110_WIDTH_PIXELS)
 8004c72:	f1b9 0f54 	cmp.w	r9, #84	; 0x54
 8004c76:	dc1a      	bgt.n	8004cae <AT_N5110LCD_print_string+0x48>
	if (Y > N5110_HEIGHT_PIXELS)
 8004c78:	2f30      	cmp	r7, #48	; 0x30
 8004c7a:	dc1b      	bgt.n	8004cb4 <AT_N5110LCD_print_string+0x4e>
 8004c7c:	461e      	mov	r6, r3
 8004c7e:	4690      	mov	r8, r2
 8004c80:	460d      	mov	r5, r1
 8004c82:	4682      	mov	sl, r0
	for(int i=0; i<size; i++)
 8004c84:	2400      	movs	r4, #0
 8004c86:	42b4      	cmp	r4, r6
 8004c88:	d20d      	bcs.n	8004ca6 <AT_N5110LCD_print_string+0x40>
		N5110_Status result = AT_N5110LCD_print_char(instance, font, text[i], X + font->Width*i, Y);
 8004c8a:	f818 2004 	ldrb.w	r2, [r8, r4]
 8004c8e:	88ab      	ldrh	r3, [r5, #4]
 8004c90:	9700      	str	r7, [sp, #0]
 8004c92:	fb04 9303 	mla	r3, r4, r3, r9
 8004c96:	4629      	mov	r1, r5
 8004c98:	4650      	mov	r0, sl
 8004c9a:	f7ff ff90 	bl	8004bbe <AT_N5110LCD_print_char>
		if (result != N5110_OK)
 8004c9e:	2801      	cmp	r0, #1
 8004ca0:	d102      	bne.n	8004ca8 <AT_N5110LCD_print_string+0x42>
	for(int i=0; i<size; i++)
 8004ca2:	3401      	adds	r4, #1
 8004ca4:	e7ef      	b.n	8004c86 <AT_N5110LCD_print_string+0x20>
	return N5110_OK;
 8004ca6:	2001      	movs	r0, #1
}
 8004ca8:	b002      	add	sp, #8
 8004caa:	e8bd 87f0 	ldmia.w	sp!, {r4, r5, r6, r7, r8, r9, sl, pc}
		return N5110_OUT_OF_FRAMEBUFFER_X;
 8004cae:	f06f 0001 	mvn.w	r0, #1
 8004cb2:	e7f9      	b.n	8004ca8 <AT_N5110LCD_print_string+0x42>
		return N5110_OUT_OF_FRAMEBUFFER_Y;
 8004cb4:	f04f 30ff 	mov.w	r0, #4294967295	; 0xffffffff
 8004cb8:	e7f6      	b.n	8004ca8 <AT_N5110LCD_print_string+0x42>
	...

08004cbc <MX_DMA_Init>:
 8004cbc:	b500      	push	{lr}
 8004cbe:	b083      	sub	sp, #12
 8004cc0:	4b0b      	ldr	r3, [pc, #44]	; (8004cf0 <MX_DMA_Init+0x34>)
 8004cc2:	f8d3 20d8 	ldr.w	r2, [r3, #216]	; 0xd8
 8004cc6:	f042 0201 	orr.w	r2, r2, #1
 8004cca:	f8c3 20d8 	str.w	r2, [r3, #216]	; 0xd8
 8004cce:	f8d3 30d8 	ldr.w	r3, [r3, #216]	; 0xd8
 8004cd2:	f003 0301 	and.w	r3, r3, #1
 8004cd6:	9301      	str	r3, [sp, #4]
 8004cd8:	9b01      	ldr	r3, [sp, #4]
 8004cda:	2200      	movs	r2, #0
 8004cdc:	4611      	mov	r1, r2
 8004cde:	200b      	movs	r0, #11
 8004ce0:	f7fb fcf2 	bl	80006c8 <HAL_NVIC_SetPriority>
 8004ce4:	200b      	movs	r0, #11
 8004ce6:	f7fb fd1f 	bl	8000728 <HAL_NVIC_EnableIRQ>
 8004cea:	b003      	add	sp, #12
 8004cec:	f85d fb04 	ldr.w	pc, [sp], #4
 8004cf0:	58024400 	.word	0x58024400

08004cf4 <MX_ETH_Init>:
 8004cf4:	b510      	push	{r4, lr}
 8004cf6:	b082      	sub	sp, #8
 8004cf8:	4818      	ldr	r0, [pc, #96]	; (8004d5c <MX_ETH_Init+0x68>)
 8004cfa:	4b19      	ldr	r3, [pc, #100]	; (8004d60 <MX_ETH_Init+0x6c>)
 8004cfc:	6003      	str	r3, [r0, #0]
 8004cfe:	2300      	movs	r3, #0
 8004d00:	f88d 3000 	strb.w	r3, [sp]
 8004d04:	2280      	movs	r2, #128	; 0x80
 8004d06:	f88d 2001 	strb.w	r2, [sp, #1]
 8004d0a:	22e1      	movs	r2, #225	; 0xe1
 8004d0c:	f88d 2002 	strb.w	r2, [sp, #2]
 8004d10:	f88d 3003 	strb.w	r3, [sp, #3]
 8004d14:	f88d 3004 	strb.w	r3, [sp, #4]
 8004d18:	f88d 3005 	strb.w	r3, [sp, #5]
 8004d1c:	f8c0 d004 	str.w	sp, [r0, #4]
 8004d20:	2301      	movs	r3, #1
 8004d22:	7203      	strb	r3, [r0, #8]
 8004d24:	4b0f      	ldr	r3, [pc, #60]	; (8004d64 <MX_ETH_Init+0x70>)
 8004d26:	60c3      	str	r3, [r0, #12]
 8004d28:	4b0f      	ldr	r3, [pc, #60]	; (8004d68 <MX_ETH_Init+0x74>)
 8004d2a:	6103      	str	r3, [r0, #16]
 8004d2c:	f240 53f4 	movw	r3, #1524	; 0x5f4
 8004d30:	6143      	str	r3, [r0, #20]
 8004d32:	f7fc fbd9 	bl	80014e8 <HAL_ETH_Init>
 8004d36:	b960      	cbnz	r0, 8004d52 <MX_ETH_Init+0x5e>
 8004d38:	4c0c      	ldr	r4, [pc, #48]	; (8004d6c <MX_ETH_Init+0x78>)
 8004d3a:	2234      	movs	r2, #52	; 0x34
 8004d3c:	2100      	movs	r1, #0
 8004d3e:	4620      	mov	r0, r4
 8004d40:	f000 fc9e 	bl	8005680 <memset>
 8004d44:	2321      	movs	r3, #33	; 0x21
 8004d46:	6023      	str	r3, [r4, #0]
 8004d48:	f44f 3340 	mov.w	r3, #196608	; 0x30000
 8004d4c:	6163      	str	r3, [r4, #20]
 8004d4e:	b002      	add	sp, #8
 8004d50:	bd10      	pop	{r4, pc}
 8004d52:	2164      	movs	r1, #100	; 0x64
 8004d54:	4806      	ldr	r0, [pc, #24]	; (8004d70 <MX_ETH_Init+0x7c>)
 8004d56:	f000 f95b 	bl	8005010 <_Error_Handler>
 8004d5a:	e7ed      	b.n	8004d38 <MX_ETH_Init+0x44>
 8004d5c:	2000016c 	.word	0x2000016c
 8004d60:	40028000 	.word	0x40028000
 8004d64:	200000dc 	.word	0x200000dc
 8004d68:	2000007c 	.word	0x2000007c
 8004d6c:	200001d4 	.word	0x200001d4
 8004d70:	08007b5c 	.word	0x08007b5c

08004d74 <HAL_ETH_MspInit>:
 8004d74:	6802      	ldr	r2, [r0, #0]
 8004d76:	4b2d      	ldr	r3, [pc, #180]	; (8004e2c <HAL_ETH_MspInit+0xb8>)
 8004d78:	429a      	cmp	r2, r3
 8004d7a:	d000      	beq.n	8004d7e <HAL_ETH_MspInit+0xa>
 8004d7c:	4770      	bx	lr
 8004d7e:	b570      	push	{r4, r5, r6, lr}
 8004d80:	b088      	sub	sp, #32
 8004d82:	4b2b      	ldr	r3, [pc, #172]	; (8004e30 <HAL_ETH_MspInit+0xbc>)
 8004d84:	f8d3 20d8 	ldr.w	r2, [r3, #216]	; 0xd8
 8004d88:	f442 4200 	orr.w	r2, r2, #32768	; 0x8000
 8004d8c:	f8c3 20d8 	str.w	r2, [r3, #216]	; 0xd8
 8004d90:	f8d3 20d8 	ldr.w	r2, [r3, #216]	; 0xd8
 8004d94:	f402 4200 	and.w	r2, r2, #32768	; 0x8000
 8004d98:	9200      	str	r2, [sp, #0]
 8004d9a:	9a00      	ldr	r2, [sp, #0]
 8004d9c:	f8d3 20d8 	ldr.w	r2, [r3, #216]	; 0xd8
 8004da0:	f442 3280 	orr.w	r2, r2, #65536	; 0x10000
 8004da4:	f8c3 20d8 	str.w	r2, [r3, #216]	; 0xd8
 8004da8:	f8d3 20d8 	ldr.w	r2, [r3, #216]	; 0xd8
 8004dac:	f402 3280 	and.w	r2, r2, #65536	; 0x10000
 8004db0:	9201      	str	r2, [sp, #4]
 8004db2:	9a01      	ldr	r2, [sp, #4]
 8004db4:	f8d3 20d8 	ldr.w	r2, [r3, #216]	; 0xd8
 8004db8:	f442 3200 	orr.w	r2, r2, #131072	; 0x20000
 8004dbc:	f8c3 20d8 	str.w	r2, [r3, #216]	; 0xd8
 8004dc0:	f8d3 30d8 	ldr.w	r3, [r3, #216]	; 0xd8
 8004dc4:	f403 3300 	and.w	r3, r3, #131072	; 0x20000
 8004dc8:	9302      	str	r3, [sp, #8]
 8004dca:	9b02      	ldr	r3, [sp, #8]
 8004dcc:	2332      	movs	r3, #50	; 0x32
 8004dce:	9303      	str	r3, [sp, #12]
 8004dd0:	2602      	movs	r6, #2
 8004dd2:	9604      	str	r6, [sp, #16]
 8004dd4:	2400      	movs	r4, #0
 8004dd6:	9405      	str	r4, [sp, #20]
 8004dd8:	9406      	str	r4, [sp, #24]
 8004dda:	250b      	movs	r5, #11
 8004ddc:	9507      	str	r5, [sp, #28]
 8004dde:	a903      	add	r1, sp, #12
 8004de0:	4814      	ldr	r0, [pc, #80]	; (8004e34 <HAL_ETH_MspInit+0xc0>)
 8004de2:	f7fc fc1f 	bl	8001624 <HAL_GPIO_Init>
 8004de6:	2386      	movs	r3, #134	; 0x86
 8004de8:	9303      	str	r3, [sp, #12]
 8004dea:	9604      	str	r6, [sp, #16]
 8004dec:	9405      	str	r4, [sp, #20]
 8004dee:	9406      	str	r4, [sp, #24]
 8004df0:	9507      	str	r5, [sp, #28]
 8004df2:	a903      	add	r1, sp, #12
 8004df4:	4810      	ldr	r0, [pc, #64]	; (8004e38 <HAL_ETH_MspInit+0xc4>)
 8004df6:	f7fc fc15 	bl	8001624 <HAL_GPIO_Init>
 8004dfa:	f44f 5300 	mov.w	r3, #8192	; 0x2000
 8004dfe:	9303      	str	r3, [sp, #12]
 8004e00:	9604      	str	r6, [sp, #16]
 8004e02:	9405      	str	r4, [sp, #20]
 8004e04:	9406      	str	r4, [sp, #24]
 8004e06:	9507      	str	r5, [sp, #28]
 8004e08:	a903      	add	r1, sp, #12
 8004e0a:	480c      	ldr	r0, [pc, #48]	; (8004e3c <HAL_ETH_MspInit+0xc8>)
 8004e0c:	f7fc fc0a 	bl	8001624 <HAL_GPIO_Init>
 8004e10:	f44f 5320 	mov.w	r3, #10240	; 0x2800
 8004e14:	9303      	str	r3, [sp, #12]
 8004e16:	9604      	str	r6, [sp, #16]
 8004e18:	9405      	str	r4, [sp, #20]
 8004e1a:	9406      	str	r4, [sp, #24]
 8004e1c:	9507      	str	r5, [sp, #28]
 8004e1e:	a903      	add	r1, sp, #12
 8004e20:	4807      	ldr	r0, [pc, #28]	; (8004e40 <HAL_ETH_MspInit+0xcc>)
 8004e22:	f7fc fbff 	bl	8001624 <HAL_GPIO_Init>
 8004e26:	b008      	add	sp, #32
 8004e28:	bd70      	pop	{r4, r5, r6, pc}
 8004e2a:	bf00      	nop
 8004e2c:	40028000 	.word	0x40028000
 8004e30:	58024400 	.word	0x58024400
 8004e34:	58020800 	.word	0x58020800
 8004e38:	58020000 	.word	0x58020000
 8004e3c:	58020400 	.word	0x58020400
 8004e40:	58021800 	.word	0x58021800

08004e44 <MX_GPIO_Init>:
 8004e44:	e92d 4ff0 	stmdb	sp!, {r4, r5, r6, r7, r8, r9, sl, fp, lr}
 8004e48:	b08d      	sub	sp, #52	; 0x34
 8004e4a:	4b5b      	ldr	r3, [pc, #364]	; (8004fb8 <MX_GPIO_Init+0x174>)
 8004e4c:	f8d3 20e0 	ldr.w	r2, [r3, #224]	; 0xe0
 8004e50:	f042 0204 	orr.w	r2, r2, #4
 8004e54:	f8c3 20e0 	str.w	r2, [r3, #224]	; 0xe0
 8004e58:	f8d3 20e0 	ldr.w	r2, [r3, #224]	; 0xe0
 8004e5c:	f002 0204 	and.w	r2, r2, #4
 8004e60:	9201      	str	r2, [sp, #4]
 8004e62:	9a01      	ldr	r2, [sp, #4]
 8004e64:	f8d3 20e0 	ldr.w	r2, [r3, #224]	; 0xe0
 8004e68:	f042 0280 	orr.w	r2, r2, #128	; 0x80
 8004e6c:	f8c3 20e0 	str.w	r2, [r3, #224]	; 0xe0
 8004e70:	f8d3 20e0 	ldr.w	r2, [r3, #224]	; 0xe0
 8004e74:	f002 0280 	and.w	r2, r2, #128	; 0x80
 8004e78:	9202      	str	r2, [sp, #8]
 8004e7a:	9a02      	ldr	r2, [sp, #8]
 8004e7c:	f8d3 20e0 	ldr.w	r2, [r3, #224]	; 0xe0
 8004e80:	f042 0201 	orr.w	r2, r2, #1
 8004e84:	f8c3 20e0 	str.w	r2, [r3, #224]	; 0xe0
 8004e88:	f8d3 20e0 	ldr.w	r2, [r3, #224]	; 0xe0
 8004e8c:	f002 0201 	and.w	r2, r2, #1
 8004e90:	9203      	str	r2, [sp, #12]
 8004e92:	9a03      	ldr	r2, [sp, #12]
 8004e94:	f8d3 20e0 	ldr.w	r2, [r3, #224]	; 0xe0
 8004e98:	f042 0202 	orr.w	r2, r2, #2
 8004e9c:	f8c3 20e0 	str.w	r2, [r3, #224]	; 0xe0
 8004ea0:	f8d3 20e0 	ldr.w	r2, [r3, #224]	; 0xe0
 8004ea4:	f002 0202 	and.w	r2, r2, #2
 8004ea8:	9204      	str	r2, [sp, #16]
 8004eaa:	9a04      	ldr	r2, [sp, #16]
 8004eac:	f8d3 20e0 	ldr.w	r2, [r3, #224]	; 0xe0
 8004eb0:	f042 0208 	orr.w	r2, r2, #8
 8004eb4:	f8c3 20e0 	str.w	r2, [r3, #224]	; 0xe0
 8004eb8:	f8d3 20e0 	ldr.w	r2, [r3, #224]	; 0xe0
 8004ebc:	f002 0208 	and.w	r2, r2, #8
 8004ec0:	9205      	str	r2, [sp, #20]
 8004ec2:	9a05      	ldr	r2, [sp, #20]
 8004ec4:	f8d3 20e0 	ldr.w	r2, [r3, #224]	; 0xe0
 8004ec8:	f042 0240 	orr.w	r2, r2, #64	; 0x40
 8004ecc:	f8c3 20e0 	str.w	r2, [r3, #224]	; 0xe0
 8004ed0:	f8d3 30e0 	ldr.w	r3, [r3, #224]	; 0xe0
 8004ed4:	f003 0340 	and.w	r3, r3, #64	; 0x40
 8004ed8:	9306      	str	r3, [sp, #24]
 8004eda:	9b06      	ldr	r3, [sp, #24]
 8004edc:	f8df b0e8 	ldr.w	fp, [pc, #232]	; 8004fc8 <MX_GPIO_Init+0x184>
 8004ee0:	2200      	movs	r2, #0
 8004ee2:	2110      	movs	r1, #16
 8004ee4:	4658      	mov	r0, fp
 8004ee6:	f7fc fc93 	bl	8001810 <HAL_GPIO_WritePin>
 8004eea:	4e34      	ldr	r6, [pc, #208]	; (8004fbc <MX_GPIO_Init+0x178>)
 8004eec:	2200      	movs	r2, #0
 8004eee:	f44f 4181 	mov.w	r1, #16512	; 0x4080
 8004ef2:	4630      	mov	r0, r6
 8004ef4:	f7fc fc8c 	bl	8001810 <HAL_GPIO_WritePin>
 8004ef8:	f8df 80d0 	ldr.w	r8, [pc, #208]	; 8004fcc <MX_GPIO_Init+0x188>
 8004efc:	2200      	movs	r2, #0
 8004efe:	2140      	movs	r1, #64	; 0x40
 8004f00:	4640      	mov	r0, r8
 8004f02:	f7fc fc85 	bl	8001810 <HAL_GPIO_WritePin>
 8004f06:	4f2e      	ldr	r7, [pc, #184]	; (8004fc0 <MX_GPIO_Init+0x17c>)
 8004f08:	2201      	movs	r2, #1
 8004f0a:	2180      	movs	r1, #128	; 0x80
 8004f0c:	4638      	mov	r0, r7
 8004f0e:	f7fc fc7f 	bl	8001810 <HAL_GPIO_WritePin>
 8004f12:	2201      	movs	r2, #1
 8004f14:	2110      	movs	r1, #16
 8004f16:	4630      	mov	r0, r6
 8004f18:	f7fc fc7a 	bl	8001810 <HAL_GPIO_WritePin>
 8004f1c:	f44f 5300 	mov.w	r3, #8192	; 0x2000
 8004f20:	9307      	str	r3, [sp, #28]
 8004f22:	4b28      	ldr	r3, [pc, #160]	; (8004fc4 <MX_GPIO_Init+0x180>)
 8004f24:	9308      	str	r3, [sp, #32]
 8004f26:	2400      	movs	r4, #0
 8004f28:	9409      	str	r4, [sp, #36]	; 0x24
 8004f2a:	a907      	add	r1, sp, #28
 8004f2c:	4638      	mov	r0, r7
 8004f2e:	f7fc fb79 	bl	8001624 <HAL_GPIO_Init>
 8004f32:	f04f 0a10 	mov.w	sl, #16
 8004f36:	f8cd a01c 	str.w	sl, [sp, #28]
 8004f3a:	2501      	movs	r5, #1
 8004f3c:	9508      	str	r5, [sp, #32]
 8004f3e:	9409      	str	r4, [sp, #36]	; 0x24
 8004f40:	f04f 0903 	mov.w	r9, #3
 8004f44:	f8cd 9028 	str.w	r9, [sp, #40]	; 0x28
 8004f48:	a907      	add	r1, sp, #28
 8004f4a:	4658      	mov	r0, fp
 8004f4c:	f7fc fb6a 	bl	8001624 <HAL_GPIO_Init>
 8004f50:	f44f 4381 	mov.w	r3, #16512	; 0x4080
 8004f54:	9307      	str	r3, [sp, #28]
 8004f56:	9508      	str	r5, [sp, #32]
 8004f58:	9409      	str	r4, [sp, #36]	; 0x24
 8004f5a:	940a      	str	r4, [sp, #40]	; 0x28
 8004f5c:	a907      	add	r1, sp, #28
 8004f5e:	4630      	mov	r0, r6
 8004f60:	f7fc fb60 	bl	8001624 <HAL_GPIO_Init>
 8004f64:	2340      	movs	r3, #64	; 0x40
 8004f66:	9307      	str	r3, [sp, #28]
 8004f68:	9508      	str	r5, [sp, #32]
 8004f6a:	9409      	str	r4, [sp, #36]	; 0x24
 8004f6c:	940a      	str	r4, [sp, #40]	; 0x28
 8004f6e:	a907      	add	r1, sp, #28
 8004f70:	4640      	mov	r0, r8
 8004f72:	f7fc fb57 	bl	8001624 <HAL_GPIO_Init>
 8004f76:	f04f 0b80 	mov.w	fp, #128	; 0x80
 8004f7a:	f8cd b01c 	str.w	fp, [sp, #28]
 8004f7e:	9408      	str	r4, [sp, #32]
 8004f80:	9409      	str	r4, [sp, #36]	; 0x24
 8004f82:	a907      	add	r1, sp, #28
 8004f84:	4640      	mov	r0, r8
 8004f86:	f7fc fb4d 	bl	8001624 <HAL_GPIO_Init>
 8004f8a:	f8cd b01c 	str.w	fp, [sp, #28]
 8004f8e:	9508      	str	r5, [sp, #32]
 8004f90:	9409      	str	r4, [sp, #36]	; 0x24
 8004f92:	940a      	str	r4, [sp, #40]	; 0x28
 8004f94:	a907      	add	r1, sp, #28
 8004f96:	4638      	mov	r0, r7
 8004f98:	f7fc fb44 	bl	8001624 <HAL_GPIO_Init>
 8004f9c:	f8cd a01c 	str.w	sl, [sp, #28]
 8004fa0:	9508      	str	r5, [sp, #32]
 8004fa2:	9409      	str	r4, [sp, #36]	; 0x24
 8004fa4:	f8cd 9028 	str.w	r9, [sp, #40]	; 0x28
 8004fa8:	a907      	add	r1, sp, #28
 8004faa:	4630      	mov	r0, r6
 8004fac:	f7fc fb3a 	bl	8001624 <HAL_GPIO_Init>
 8004fb0:	b00d      	add	sp, #52	; 0x34
 8004fb2:	e8bd 8ff0 	ldmia.w	sp!, {r4, r5, r6, r7, r8, r9, sl, fp, pc}
 8004fb6:	bf00      	nop
 8004fb8:	58024400 	.word	0x58024400
 8004fbc:	58020400 	.word	0x58020400
 8004fc0:	58020800 	.word	0x58020800
 8004fc4:	11110000 	.word	0x11110000
 8004fc8:	58020000 	.word	0x58020000
 8004fcc:	58021800 	.word	0x58021800

08004fd0 <GPIO_ResetPin>:
 8004fd0:	b508      	push	{r3, lr}
 8004fd2:	2200      	movs	r2, #0
 8004fd4:	b289      	uxth	r1, r1
 8004fd6:	f7fc fc1b 	bl	8001810 <HAL_GPIO_WritePin>
 8004fda:	bd08      	pop	{r3, pc}

08004fdc <GPIO_SetPin>:
 8004fdc:	b508      	push	{r3, lr}
 8004fde:	2201      	movs	r2, #1
 8004fe0:	b289      	uxth	r1, r1
 8004fe2:	f7fc fc15 	bl	8001810 <HAL_GPIO_WritePin>
 8004fe6:	bd08      	pop	{r3, pc}

08004fe8 <SPI_Transmit>:
 8004fe8:	b508      	push	{r3, lr}
 8004fea:	230a      	movs	r3, #10
 8004fec:	b28a      	uxth	r2, r1
 8004fee:	4601      	mov	r1, r0
 8004ff0:	4801      	ldr	r0, [pc, #4]	; (8004ff8 <SPI_Transmit+0x10>)
 8004ff2:	f7fe fa6f 	bl	80034d4 <HAL_SPI_Transmit>
 8004ff6:	bd08      	pop	{r3, pc}
 8004ff8:	20000208 	.word	0x20000208

08004ffc <SPI_Transmit_DMA>:
 8004ffc:	b508      	push	{r3, lr}
 8004ffe:	b28a      	uxth	r2, r1
 8005000:	4601      	mov	r1, r0
 8005002:	4802      	ldr	r0, [pc, #8]	; (800500c <SPI_Transmit_DMA+0x10>)
 8005004:	f7fe fbbe 	bl	8003784 <HAL_SPI_Transmit_DMA>
 8005008:	bd08      	pop	{r3, pc}
 800500a:	bf00      	nop
 800500c:	20000208 	.word	0x20000208

08005010 <_Error_Handler>:
 8005010:	e7fe      	b.n	8005010 <_Error_Handler>
	...

08005014 <SystemClock_Config>:
 8005014:	b500      	push	{lr}
 8005016:	b0cd      	sub	sp, #308	; 0x134
 8005018:	4b39      	ldr	r3, [pc, #228]	; (8005100 <SystemClock_Config+0xec>)
 800501a:	68da      	ldr	r2, [r3, #12]
 800501c:	f022 0204 	bic.w	r2, r2, #4
 8005020:	60da      	str	r2, [r3, #12]
 8005022:	2200      	movs	r2, #0
 8005024:	9201      	str	r2, [sp, #4]
 8005026:	699a      	ldr	r2, [r3, #24]
 8005028:	f442 4240 	orr.w	r2, r2, #49152	; 0xc000
 800502c:	619a      	str	r2, [r3, #24]
 800502e:	699b      	ldr	r3, [r3, #24]
 8005030:	f403 4340 	and.w	r3, r3, #49152	; 0xc000
 8005034:	9301      	str	r3, [sp, #4]
 8005036:	9b01      	ldr	r3, [sp, #4]
 8005038:	4b31      	ldr	r3, [pc, #196]	; (8005100 <SystemClock_Config+0xec>)
 800503a:	699b      	ldr	r3, [r3, #24]
 800503c:	f413 5f00 	tst.w	r3, #8192	; 0x2000
 8005040:	d0fa      	beq.n	8005038 <SystemClock_Config+0x24>
 8005042:	2322      	movs	r3, #34	; 0x22
 8005044:	9339      	str	r3, [sp, #228]	; 0xe4
 8005046:	2301      	movs	r3, #1
 8005048:	933c      	str	r3, [sp, #240]	; 0xf0
 800504a:	2210      	movs	r2, #16
 800504c:	923d      	str	r2, [sp, #244]	; 0xf4
 800504e:	933f      	str	r3, [sp, #252]	; 0xfc
 8005050:	2302      	movs	r3, #2
 8005052:	9342      	str	r3, [sp, #264]	; 0x108
 8005054:	2200      	movs	r2, #0
 8005056:	9243      	str	r2, [sp, #268]	; 0x10c
 8005058:	2120      	movs	r1, #32
 800505a:	9144      	str	r1, [sp, #272]	; 0x110
 800505c:	f44f 71c8 	mov.w	r1, #400	; 0x190
 8005060:	9145      	str	r1, [sp, #276]	; 0x114
 8005062:	9346      	str	r3, [sp, #280]	; 0x118
 8005064:	9347      	str	r3, [sp, #284]	; 0x11c
 8005066:	9348      	str	r3, [sp, #288]	; 0x120
 8005068:	2304      	movs	r3, #4
 800506a:	9349      	str	r3, [sp, #292]	; 0x124
 800506c:	924a      	str	r2, [sp, #296]	; 0x128
 800506e:	924b      	str	r2, [sp, #300]	; 0x12c
 8005070:	a839      	add	r0, sp, #228	; 0xe4
 8005072:	f7fc fc73 	bl	800195c <HAL_RCC_OscConfig>
 8005076:	2800      	cmp	r0, #0
 8005078:	d133      	bne.n	80050e2 <SystemClock_Config+0xce>
 800507a:	233f      	movs	r3, #63	; 0x3f
 800507c:	9331      	str	r3, [sp, #196]	; 0xc4
 800507e:	2303      	movs	r3, #3
 8005080:	9332      	str	r3, [sp, #200]	; 0xc8
 8005082:	2300      	movs	r3, #0
 8005084:	9333      	str	r3, [sp, #204]	; 0xcc
 8005086:	2308      	movs	r3, #8
 8005088:	9334      	str	r3, [sp, #208]	; 0xd0
 800508a:	2340      	movs	r3, #64	; 0x40
 800508c:	9335      	str	r3, [sp, #212]	; 0xd4
 800508e:	9336      	str	r3, [sp, #216]	; 0xd8
 8005090:	f44f 6280 	mov.w	r2, #1024	; 0x400
 8005094:	9237      	str	r2, [sp, #220]	; 0xdc
 8005096:	9338      	str	r3, [sp, #224]	; 0xe0
 8005098:	2102      	movs	r1, #2
 800509a:	a831      	add	r0, sp, #196	; 0xc4
 800509c:	f7fd f80a 	bl	80020b4 <HAL_RCC_ClockConfig>
 80050a0:	bb18      	cbnz	r0, 80050ea <SystemClock_Config+0xd6>
 80050a2:	4b18      	ldr	r3, [pc, #96]	; (8005104 <SystemClock_Config+0xf0>)
 80050a4:	9302      	str	r3, [sp, #8]
 80050a6:	2300      	movs	r3, #0
 80050a8:	9319      	str	r3, [sp, #100]	; 0x64
 80050aa:	931f      	str	r3, [sp, #124]	; 0x7c
 80050ac:	f44f 1340 	mov.w	r3, #3145728	; 0x300000
 80050b0:	9323      	str	r3, [sp, #140]	; 0x8c
 80050b2:	a802      	add	r0, sp, #8
 80050b4:	f7fd fa24 	bl	8002500 <HAL_RCCEx_PeriphCLKConfig>
 80050b8:	b9e0      	cbnz	r0, 80050f4 <SystemClock_Config+0xe0>
 80050ba:	4b13      	ldr	r3, [pc, #76]	; (8005108 <SystemClock_Config+0xf4>)
 80050bc:	6818      	ldr	r0, [r3, #0]
 80050be:	4b13      	ldr	r3, [pc, #76]	; (800510c <SystemClock_Config+0xf8>)
 80050c0:	fba3 3000 	umull	r3, r0, r3, r0
 80050c4:	0980      	lsrs	r0, r0, #6
 80050c6:	f7fb fb3d 	bl	8000744 <HAL_SYSTICK_Config>
 80050ca:	2004      	movs	r0, #4
 80050cc:	f7fb fb50 	bl	8000770 <HAL_SYSTICK_CLKSourceConfig>
 80050d0:	2200      	movs	r2, #0
 80050d2:	4611      	mov	r1, r2
 80050d4:	f04f 30ff 	mov.w	r0, #4294967295	; 0xffffffff
 80050d8:	f7fb faf6 	bl	80006c8 <HAL_NVIC_SetPriority>
 80050dc:	b04d      	add	sp, #308	; 0x134
 80050de:	f85d fb04 	ldr.w	pc, [sp], #4
 80050e2:	21f9      	movs	r1, #249	; 0xf9
 80050e4:	480a      	ldr	r0, [pc, #40]	; (8005110 <SystemClock_Config+0xfc>)
 80050e6:	f7ff ff93 	bl	8005010 <_Error_Handler>
 80050ea:	f240 110b 	movw	r1, #267	; 0x10b
 80050ee:	4808      	ldr	r0, [pc, #32]	; (8005110 <SystemClock_Config+0xfc>)
 80050f0:	f7ff ff8e 	bl	8005010 <_Error_Handler>
 80050f4:	f240 1115 	movw	r1, #277	; 0x115
 80050f8:	4805      	ldr	r0, [pc, #20]	; (8005110 <SystemClock_Config+0xfc>)
 80050fa:	f7ff ff89 	bl	8005010 <_Error_Handler>
 80050fe:	bf00      	nop
 8005100:	58024800 	.word	0x58024800
 8005104:	00041002 	.word	0x00041002
 8005108:	20000010 	.word	0x20000010
 800510c:	10624dd3 	.word	0x10624dd3
 8005110:	08007b6c 	.word	0x08007b6c

08005114 <main>:
 8005114:	e92d 41f0 	stmdb	sp!, {r4, r5, r6, r7, r8, lr}
 8005118:	b086      	sub	sp, #24
 800511a:	f7fb fa83 	bl	8000624 <HAL_Init>
 800511e:	f7ff ff79 	bl	8005014 <SystemClock_Config>
 8005122:	f7ff fe8f 	bl	8004e44 <MX_GPIO_Init>
 8005126:	f7ff fdc9 	bl	8004cbc <MX_DMA_Init>
 800512a:	f7ff fde3 	bl	8004cf4 <MX_ETH_Init>
 800512e:	f000 f9ab 	bl	8005488 <MX_USART3_UART_Init>
 8005132:	f000 f9f9 	bl	8005528 <MX_USB_OTG_FS_PCD_Init>
 8005136:	f000 f881 	bl	800523c <MX_SPI1_Init>
 800513a:	f7ff fcbe 	bl	8004aba <AT_N5110LCD_open>
 800513e:	4606      	mov	r6, r0
 8005140:	4b33      	ldr	r3, [pc, #204]	; (8005210 <main+0xfc>)
 8005142:	61c3      	str	r3, [r0, #28]
 8005144:	4b33      	ldr	r3, [pc, #204]	; (8005214 <main+0x100>)
 8005146:	6203      	str	r3, [r0, #32]
 8005148:	4b33      	ldr	r3, [pc, #204]	; (8005218 <main+0x104>)
 800514a:	6283      	str	r3, [r0, #40]	; 0x28
 800514c:	4b33      	ldr	r3, [pc, #204]	; (800521c <main+0x108>)
 800514e:	6243      	str	r3, [r0, #36]	; 0x24
 8005150:	4b33      	ldr	r3, [pc, #204]	; (8005220 <main+0x10c>)
 8005152:	62c3      	str	r3, [r0, #44]	; 0x2c
 8005154:	4b33      	ldr	r3, [pc, #204]	; (8005224 <main+0x110>)
 8005156:	6303      	str	r3, [r0, #48]	; 0x30
 8005158:	4b33      	ldr	r3, [pc, #204]	; (8005228 <main+0x114>)
 800515a:	60c3      	str	r3, [r0, #12]
 800515c:	2380      	movs	r3, #128	; 0x80
 800515e:	6103      	str	r3, [r0, #16]
 8005160:	4b32      	ldr	r3, [pc, #200]	; (800522c <main+0x118>)
 8005162:	6143      	str	r3, [r0, #20]
 8005164:	2310      	movs	r3, #16
 8005166:	6183      	str	r3, [r0, #24]
 8005168:	4a31      	ldr	r2, [pc, #196]	; (8005230 <main+0x11c>)
 800516a:	6042      	str	r2, [r0, #4]
 800516c:	6083      	str	r3, [r0, #8]
 800516e:	f7ff fca9 	bl	8004ac4 <AT_N5110LCD_init>
 8005172:	2354      	movs	r3, #84	; 0x54
 8005174:	2400      	movs	r4, #0
 8005176:	4627      	mov	r7, r4
 8005178:	e008      	b.n	800518c <main+0x78>
 800517a:	2700      	movs	r7, #0
 800517c:	e043      	b.n	8005206 <main+0xf2>
 800517e:	4630      	mov	r0, r6
 8005180:	f7ff fcb0 	bl	8004ae4 <AT_N5110LCD_update_display>
 8005184:	201e      	movs	r0, #30
 8005186:	f7fb fa6f 	bl	8000668 <HAL_Delay>
 800518a:	4643      	mov	r3, r8
 800518c:	4a29      	ldr	r2, [pc, #164]	; (8005234 <main+0x120>)
 800518e:	e892 0003 	ldmia.w	r2, {r0, r1}
 8005192:	9004      	str	r0, [sp, #16]
 8005194:	f8ad 1014 	strh.w	r1, [sp, #20]
 8005198:	0c09      	lsrs	r1, r1, #16
 800519a:	f88d 1016 	strb.w	r1, [sp, #22]
 800519e:	f103 38ff 	add.w	r8, r3, #4294967295	; 0xffffffff
 80051a2:	fa4f f888 	sxtb.w	r8, r8
 80051a6:	2205      	movs	r2, #5
 80051a8:	9201      	str	r2, [sp, #4]
 80051aa:	9300      	str	r3, [sp, #0]
 80051ac:	2306      	movs	r3, #6
 80051ae:	aa04      	add	r2, sp, #16
 80051b0:	4921      	ldr	r1, [pc, #132]	; (8005238 <main+0x124>)
 80051b2:	4630      	mov	r0, r6
 80051b4:	f7ff fd57 	bl	8004c66 <AT_N5110LCD_print_string>
 80051b8:	2301      	movs	r3, #1
 80051ba:	4622      	mov	r2, r4
 80051bc:	4639      	mov	r1, r7
 80051be:	4630      	mov	r0, r6
 80051c0:	f7ff fcf5 	bl	8004bae <AT_N5110LCD_draw_pixel>
 80051c4:	f10d 030f 	add.w	r3, sp, #15
 80051c8:	4622      	mov	r2, r4
 80051ca:	4639      	mov	r1, r7
 80051cc:	4630      	mov	r0, r6
 80051ce:	f7ff fc9d 	bl	8004b0c <AT_N5110LCD_get_pixel>
 80051d2:	1c7d      	adds	r5, r7, #1
 80051d4:	b2ed      	uxtb	r5, r5
 80051d6:	3401      	adds	r4, #1
 80051d8:	b2e4      	uxtb	r4, r4
 80051da:	f10d 030f 	add.w	r3, sp, #15
 80051de:	4622      	mov	r2, r4
 80051e0:	4629      	mov	r1, r5
 80051e2:	4630      	mov	r0, r6
 80051e4:	f7ff fc92 	bl	8004b0c <AT_N5110LCD_get_pixel>
 80051e8:	f10d 030f 	add.w	r3, sp, #15
 80051ec:	4622      	mov	r2, r4
 80051ee:	4629      	mov	r1, r5
 80051f0:	4630      	mov	r0, r6
 80051f2:	f7ff fc8b 	bl	8004b0c <AT_N5110LCD_get_pixel>
 80051f6:	f89d 300f 	ldrb.w	r3, [sp, #15]
 80051fa:	441f      	add	r7, r3
 80051fc:	f88d 700f 	strb.w	r7, [sp, #15]
 8005200:	2d53      	cmp	r5, #83	; 0x53
 8005202:	d8ba      	bhi.n	800517a <main+0x66>
 8005204:	462f      	mov	r7, r5
 8005206:	2c2f      	cmp	r4, #47	; 0x2f
 8005208:	d9b9      	bls.n	800517e <main+0x6a>
 800520a:	2400      	movs	r4, #0
 800520c:	e7b7      	b.n	800517e <main+0x6a>
 800520e:	bf00      	nop
 8005210:	08000669 	.word	0x08000669
 8005214:	0800065d 	.word	0x0800065d
 8005218:	08004fd1 	.word	0x08004fd1
 800521c:	08004fdd 	.word	0x08004fdd
 8005220:	08004fe9 	.word	0x08004fe9
 8005224:	08004ffd 	.word	0x08004ffd
 8005228:	58020800 	.word	0x58020800
 800522c:	58020400 	.word	0x58020400
 8005230:	58020000 	.word	0x58020000
 8005234:	08007b7c 	.word	0x08007b7c
 8005238:	20000008 	.word	0x20000008

0800523c <MX_SPI1_Init>:
 800523c:	b508      	push	{r3, lr}
 800523e:	4815      	ldr	r0, [pc, #84]	; (8005294 <MX_SPI1_Init+0x58>)
 8005240:	4b15      	ldr	r3, [pc, #84]	; (8005298 <MX_SPI1_Init+0x5c>)
 8005242:	6003      	str	r3, [r0, #0]
 8005244:	f44f 0380 	mov.w	r3, #4194304	; 0x400000
 8005248:	6043      	str	r3, [r0, #4]
 800524a:	f44f 3300 	mov.w	r3, #131072	; 0x20000
 800524e:	6083      	str	r3, [r0, #8]
 8005250:	2207      	movs	r2, #7
 8005252:	60c2      	str	r2, [r0, #12]
 8005254:	2300      	movs	r3, #0
 8005256:	6103      	str	r3, [r0, #16]
 8005258:	6143      	str	r3, [r0, #20]
 800525a:	f04f 5100 	mov.w	r1, #536870912	; 0x20000000
 800525e:	6181      	str	r1, [r0, #24]
 8005260:	f04f 41a0 	mov.w	r1, #1342177280	; 0x50000000
 8005264:	61c1      	str	r1, [r0, #28]
 8005266:	6203      	str	r3, [r0, #32]
 8005268:	6243      	str	r3, [r0, #36]	; 0x24
 800526a:	6283      	str	r3, [r0, #40]	; 0x28
 800526c:	62c2      	str	r2, [r0, #44]	; 0x2c
 800526e:	6343      	str	r3, [r0, #52]	; 0x34
 8005270:	6383      	str	r3, [r0, #56]	; 0x38
 8005272:	63c3      	str	r3, [r0, #60]	; 0x3c
 8005274:	6403      	str	r3, [r0, #64]	; 0x40
 8005276:	6443      	str	r3, [r0, #68]	; 0x44
 8005278:	6483      	str	r3, [r0, #72]	; 0x48
 800527a:	64c3      	str	r3, [r0, #76]	; 0x4c
 800527c:	6503      	str	r3, [r0, #80]	; 0x50
 800527e:	6543      	str	r3, [r0, #84]	; 0x54
 8005280:	6583      	str	r3, [r0, #88]	; 0x58
 8005282:	f7fe f87f 	bl	8003384 <HAL_SPI_Init>
 8005286:	b900      	cbnz	r0, 800528a <MX_SPI1_Init+0x4e>
 8005288:	bd08      	pop	{r3, pc}
 800528a:	2151      	movs	r1, #81	; 0x51
 800528c:	4803      	ldr	r0, [pc, #12]	; (800529c <MX_SPI1_Init+0x60>)
 800528e:	f7ff febf 	bl	8005010 <_Error_Handler>
 8005292:	e7f9      	b.n	8005288 <MX_SPI1_Init+0x4c>
 8005294:	20000208 	.word	0x20000208
 8005298:	40013000 	.word	0x40013000
 800529c:	08007b84 	.word	0x08007b84

080052a0 <HAL_SPI_MspInit>:
 80052a0:	6802      	ldr	r2, [r0, #0]
 80052a2:	4b28      	ldr	r3, [pc, #160]	; (8005344 <HAL_SPI_MspInit+0xa4>)
 80052a4:	429a      	cmp	r2, r3
 80052a6:	d000      	beq.n	80052aa <HAL_SPI_MspInit+0xa>
 80052a8:	4770      	bx	lr
 80052aa:	b5f0      	push	{r4, r5, r6, r7, lr}
 80052ac:	b087      	sub	sp, #28
 80052ae:	4604      	mov	r4, r0
 80052b0:	4b25      	ldr	r3, [pc, #148]	; (8005348 <HAL_SPI_MspInit+0xa8>)
 80052b2:	f8d3 20f0 	ldr.w	r2, [r3, #240]	; 0xf0
 80052b6:	f442 5280 	orr.w	r2, r2, #4096	; 0x1000
 80052ba:	f8c3 20f0 	str.w	r2, [r3, #240]	; 0xf0
 80052be:	f8d3 30f0 	ldr.w	r3, [r3, #240]	; 0xf0
 80052c2:	f403 5380 	and.w	r3, r3, #4096	; 0x1000
 80052c6:	9300      	str	r3, [sp, #0]
 80052c8:	9b00      	ldr	r3, [sp, #0]
 80052ca:	f248 0320 	movw	r3, #32800	; 0x8020
 80052ce:	9301      	str	r3, [sp, #4]
 80052d0:	2702      	movs	r7, #2
 80052d2:	9702      	str	r7, [sp, #8]
 80052d4:	2500      	movs	r5, #0
 80052d6:	9503      	str	r5, [sp, #12]
 80052d8:	9504      	str	r5, [sp, #16]
 80052da:	2605      	movs	r6, #5
 80052dc:	9605      	str	r6, [sp, #20]
 80052de:	a901      	add	r1, sp, #4
 80052e0:	481a      	ldr	r0, [pc, #104]	; (800534c <HAL_SPI_MspInit+0xac>)
 80052e2:	f7fc f99f 	bl	8001624 <HAL_GPIO_Init>
 80052e6:	2320      	movs	r3, #32
 80052e8:	9301      	str	r3, [sp, #4]
 80052ea:	9702      	str	r7, [sp, #8]
 80052ec:	9503      	str	r5, [sp, #12]
 80052ee:	9504      	str	r5, [sp, #16]
 80052f0:	9605      	str	r6, [sp, #20]
 80052f2:	a901      	add	r1, sp, #4
 80052f4:	4816      	ldr	r0, [pc, #88]	; (8005350 <HAL_SPI_MspInit+0xb0>)
 80052f6:	f7fc f995 	bl	8001624 <HAL_GPIO_Init>
 80052fa:	4816      	ldr	r0, [pc, #88]	; (8005354 <HAL_SPI_MspInit+0xb4>)
 80052fc:	4b16      	ldr	r3, [pc, #88]	; (8005358 <HAL_SPI_MspInit+0xb8>)
 80052fe:	6003      	str	r3, [r0, #0]
 8005300:	2326      	movs	r3, #38	; 0x26
 8005302:	6043      	str	r3, [r0, #4]
 8005304:	2340      	movs	r3, #64	; 0x40
 8005306:	6083      	str	r3, [r0, #8]
 8005308:	60c5      	str	r5, [r0, #12]
 800530a:	f44f 6380 	mov.w	r3, #1024	; 0x400
 800530e:	6103      	str	r3, [r0, #16]
 8005310:	6145      	str	r5, [r0, #20]
 8005312:	6185      	str	r5, [r0, #24]
 8005314:	61c5      	str	r5, [r0, #28]
 8005316:	6205      	str	r5, [r0, #32]
 8005318:	6245      	str	r5, [r0, #36]	; 0x24
 800531a:	f7fb fb53 	bl	80009c4 <HAL_DMA_Init>
 800531e:	b960      	cbnz	r0, 800533a <HAL_SPI_MspInit+0x9a>
 8005320:	4b0c      	ldr	r3, [pc, #48]	; (8005354 <HAL_SPI_MspInit+0xb4>)
 8005322:	67a3      	str	r3, [r4, #120]	; 0x78
 8005324:	639c      	str	r4, [r3, #56]	; 0x38
 8005326:	2200      	movs	r2, #0
 8005328:	4611      	mov	r1, r2
 800532a:	2023      	movs	r0, #35	; 0x23
 800532c:	f7fb f9cc 	bl	80006c8 <HAL_NVIC_SetPriority>
 8005330:	2023      	movs	r0, #35	; 0x23
 8005332:	f7fb f9f9 	bl	8000728 <HAL_NVIC_EnableIRQ>
 8005336:	b007      	add	sp, #28
 8005338:	bdf0      	pop	{r4, r5, r6, r7, pc}
 800533a:	2183      	movs	r1, #131	; 0x83
 800533c:	4807      	ldr	r0, [pc, #28]	; (800535c <HAL_SPI_MspInit+0xbc>)
 800533e:	f7ff fe67 	bl	8005010 <_Error_Handler>
 8005342:	e7ed      	b.n	8005320 <HAL_SPI_MspInit+0x80>
 8005344:	40013000 	.word	0x40013000
 8005348:	58024400 	.word	0x58024400
 800534c:	58020000 	.word	0x58020000
 8005350:	58020400 	.word	0x58020400
 8005354:	20000290 	.word	0x20000290
 8005358:	40020010 	.word	0x40020010
 800535c:	08007b84 	.word	0x08007b84

08005360 <HAL_MspInit>:
 8005360:	b500      	push	{lr}
 8005362:	b083      	sub	sp, #12
 8005364:	4b1e      	ldr	r3, [pc, #120]	; (80053e0 <HAL_MspInit+0x80>)
 8005366:	f8d3 20f4 	ldr.w	r2, [r3, #244]	; 0xf4
 800536a:	f042 0202 	orr.w	r2, r2, #2
 800536e:	f8c3 20f4 	str.w	r2, [r3, #244]	; 0xf4
 8005372:	f8d3 30f4 	ldr.w	r3, [r3, #244]	; 0xf4
 8005376:	f003 0302 	and.w	r3, r3, #2
 800537a:	9301      	str	r3, [sp, #4]
 800537c:	9b01      	ldr	r3, [sp, #4]
 800537e:	2003      	movs	r0, #3
 8005380:	f7fb f990 	bl	80006a4 <HAL_NVIC_SetPriorityGrouping>
 8005384:	2200      	movs	r2, #0
 8005386:	4611      	mov	r1, r2
 8005388:	f06f 000b 	mvn.w	r0, #11
 800538c:	f7fb f99c 	bl	80006c8 <HAL_NVIC_SetPriority>
 8005390:	2200      	movs	r2, #0
 8005392:	4611      	mov	r1, r2
 8005394:	f06f 000a 	mvn.w	r0, #10
 8005398:	f7fb f996 	bl	80006c8 <HAL_NVIC_SetPriority>
 800539c:	2200      	movs	r2, #0
 800539e:	4611      	mov	r1, r2
 80053a0:	f06f 0009 	mvn.w	r0, #9
 80053a4:	f7fb f990 	bl	80006c8 <HAL_NVIC_SetPriority>
 80053a8:	2200      	movs	r2, #0
 80053aa:	4611      	mov	r1, r2
 80053ac:	f06f 0004 	mvn.w	r0, #4
 80053b0:	f7fb f98a 	bl	80006c8 <HAL_NVIC_SetPriority>
 80053b4:	2200      	movs	r2, #0
 80053b6:	4611      	mov	r1, r2
 80053b8:	f06f 0003 	mvn.w	r0, #3
 80053bc:	f7fb f984 	bl	80006c8 <HAL_NVIC_SetPriority>
 80053c0:	2200      	movs	r2, #0
 80053c2:	4611      	mov	r1, r2
 80053c4:	f06f 0001 	mvn.w	r0, #1
 80053c8:	f7fb f97e 	bl	80006c8 <HAL_NVIC_SetPriority>
 80053cc:	2200      	movs	r2, #0
 80053ce:	4611      	mov	r1, r2
 80053d0:	f04f 30ff 	mov.w	r0, #4294967295	; 0xffffffff
 80053d4:	f7fb f978 	bl	80006c8 <HAL_NVIC_SetPriority>
 80053d8:	b003      	add	sp, #12
 80053da:	f85d fb04 	ldr.w	pc, [sp], #4
 80053de:	bf00      	nop
 80053e0:	58024400 	.word	0x58024400

080053e4 <NMI_Handler>:
 80053e4:	4770      	bx	lr

080053e6 <HardFault_Handler>:
 80053e6:	e7fe      	b.n	80053e6 <HardFault_Handler>

080053e8 <MemManage_Handler>:
 80053e8:	e7fe      	b.n	80053e8 <MemManage_Handler>

080053ea <BusFault_Handler>:
 80053ea:	e7fe      	b.n	80053ea <BusFault_Handler>

080053ec <UsageFault_Handler>:
 80053ec:	e7fe      	b.n	80053ec <UsageFault_Handler>

080053ee <SVC_Handler>:
 80053ee:	4770      	bx	lr

080053f0 <DebugMon_Handler>:
 80053f0:	4770      	bx	lr

080053f2 <PendSV_Handler>:
 80053f2:	4770      	bx	lr

080053f4 <SysTick_Handler>:
 80053f4:	b508      	push	{r3, lr}
 80053f6:	f7fb f925 	bl	8000644 <HAL_IncTick>
 80053fa:	f7fb f9ca 	bl	8000792 <HAL_SYSTICK_IRQHandler>
 80053fe:	bd08      	pop	{r3, pc}

08005400 <DMA1_Stream0_IRQHandler>:
 8005400:	b508      	push	{r3, lr}
 8005402:	4802      	ldr	r0, [pc, #8]	; (800540c <DMA1_Stream0_IRQHandler+0xc>)
 8005404:	f7fb fc8c 	bl	8000d20 <HAL_DMA_IRQHandler>
 8005408:	bd08      	pop	{r3, pc}
 800540a:	bf00      	nop
 800540c:	20000290 	.word	0x20000290

08005410 <SPI1_IRQHandler>:
 8005410:	b508      	push	{r3, lr}
 8005412:	4802      	ldr	r0, [pc, #8]	; (800541c <SPI1_IRQHandler+0xc>)
 8005414:	f7fe fabc 	bl	8003990 <HAL_SPI_IRQHandler>
 8005418:	bd08      	pop	{r3, pc}
 800541a:	bf00      	nop
 800541c:	20000208 	.word	0x20000208

08005420 <SystemInit>:
 8005420:	b410      	push	{r4}
 8005422:	4915      	ldr	r1, [pc, #84]	; (8005478 <SystemInit+0x58>)
 8005424:	f8d1 3088 	ldr.w	r3, [r1, #136]	; 0x88
 8005428:	f443 0370 	orr.w	r3, r3, #15728640	; 0xf00000
 800542c:	f8c1 3088 	str.w	r3, [r1, #136]	; 0x88
 8005430:	4b12      	ldr	r3, [pc, #72]	; (800547c <SystemInit+0x5c>)
 8005432:	681a      	ldr	r2, [r3, #0]
 8005434:	f042 0201 	orr.w	r2, r2, #1
 8005438:	601a      	str	r2, [r3, #0]
 800543a:	2200      	movs	r2, #0
 800543c:	611a      	str	r2, [r3, #16]
 800543e:	681c      	ldr	r4, [r3, #0]
 8005440:	480f      	ldr	r0, [pc, #60]	; (8005480 <SystemInit+0x60>)
 8005442:	4020      	ands	r0, r4
 8005444:	6018      	str	r0, [r3, #0]
 8005446:	619a      	str	r2, [r3, #24]
 8005448:	61da      	str	r2, [r3, #28]
 800544a:	621a      	str	r2, [r3, #32]
 800544c:	629a      	str	r2, [r3, #40]	; 0x28
 800544e:	62da      	str	r2, [r3, #44]	; 0x2c
 8005450:	631a      	str	r2, [r3, #48]	; 0x30
 8005452:	635a      	str	r2, [r3, #52]	; 0x34
 8005454:	639a      	str	r2, [r3, #56]	; 0x38
 8005456:	63da      	str	r2, [r3, #60]	; 0x3c
 8005458:	641a      	str	r2, [r3, #64]	; 0x40
 800545a:	645a      	str	r2, [r3, #68]	; 0x44
 800545c:	6818      	ldr	r0, [r3, #0]
 800545e:	f420 2080 	bic.w	r0, r0, #262144	; 0x40000
 8005462:	6018      	str	r0, [r3, #0]
 8005464:	661a      	str	r2, [r3, #96]	; 0x60
 8005466:	2201      	movs	r2, #1
 8005468:	4b06      	ldr	r3, [pc, #24]	; (8005484 <SystemInit+0x64>)
 800546a:	601a      	str	r2, [r3, #0]
 800546c:	f04f 6300 	mov.w	r3, #134217728	; 0x8000000
 8005470:	608b      	str	r3, [r1, #8]
 8005472:	f85d 4b04 	ldr.w	r4, [sp], #4
 8005476:	4770      	bx	lr
 8005478:	e000ed00 	.word	0xe000ed00
 800547c:	58024400 	.word	0x58024400
 8005480:	eaf6ed7f 	.word	0xeaf6ed7f
 8005484:	51008108 	.word	0x51008108

08005488 <MX_USART3_UART_Init>:
 8005488:	b508      	push	{r3, lr}
 800548a:	480e      	ldr	r0, [pc, #56]	; (80054c4 <MX_USART3_UART_Init+0x3c>)
 800548c:	4b0e      	ldr	r3, [pc, #56]	; (80054c8 <MX_USART3_UART_Init+0x40>)
 800548e:	6003      	str	r3, [r0, #0]
 8005490:	f44f 33e1 	mov.w	r3, #115200	; 0x1c200
 8005494:	6043      	str	r3, [r0, #4]
 8005496:	2300      	movs	r3, #0
 8005498:	6083      	str	r3, [r0, #8]
 800549a:	60c3      	str	r3, [r0, #12]
 800549c:	6103      	str	r3, [r0, #16]
 800549e:	220c      	movs	r2, #12
 80054a0:	6142      	str	r2, [r0, #20]
 80054a2:	6183      	str	r3, [r0, #24]
 80054a4:	61c3      	str	r3, [r0, #28]
 80054a6:	6203      	str	r3, [r0, #32]
 80054a8:	6243      	str	r3, [r0, #36]	; 0x24
 80054aa:	6283      	str	r3, [r0, #40]	; 0x28
 80054ac:	62c3      	str	r3, [r0, #44]	; 0x2c
 80054ae:	6303      	str	r3, [r0, #48]	; 0x30
 80054b0:	6343      	str	r3, [r0, #52]	; 0x34
 80054b2:	f7ff f8e4 	bl	800467e <HAL_UART_Init>
 80054b6:	b900      	cbnz	r0, 80054ba <MX_USART3_UART_Init+0x32>
 80054b8:	bd08      	pop	{r3, pc}
 80054ba:	2148      	movs	r1, #72	; 0x48
 80054bc:	4803      	ldr	r0, [pc, #12]	; (80054cc <MX_USART3_UART_Init+0x44>)
 80054be:	f7ff fda7 	bl	8005010 <_Error_Handler>
 80054c2:	e7f9      	b.n	80054b8 <MX_USART3_UART_Init+0x30>
 80054c4:	20000308 	.word	0x20000308
 80054c8:	40004800 	.word	0x40004800
 80054cc:	08007ba4 	.word	0x08007ba4

080054d0 <HAL_UART_MspInit>:
 80054d0:	6802      	ldr	r2, [r0, #0]
 80054d2:	4b12      	ldr	r3, [pc, #72]	; (800551c <HAL_UART_MspInit+0x4c>)
 80054d4:	429a      	cmp	r2, r3
 80054d6:	d000      	beq.n	80054da <HAL_UART_MspInit+0xa>
 80054d8:	4770      	bx	lr
 80054da:	b500      	push	{lr}
 80054dc:	b087      	sub	sp, #28
 80054de:	4b10      	ldr	r3, [pc, #64]	; (8005520 <HAL_UART_MspInit+0x50>)
 80054e0:	f8d3 20e8 	ldr.w	r2, [r3, #232]	; 0xe8
 80054e4:	f442 2280 	orr.w	r2, r2, #262144	; 0x40000
 80054e8:	f8c3 20e8 	str.w	r2, [r3, #232]	; 0xe8
 80054ec:	f8d3 30e8 	ldr.w	r3, [r3, #232]	; 0xe8
 80054f0:	f403 2380 	and.w	r3, r3, #262144	; 0x40000
 80054f4:	9300      	str	r3, [sp, #0]
 80054f6:	9b00      	ldr	r3, [sp, #0]
 80054f8:	f44f 7340 	mov.w	r3, #768	; 0x300
 80054fc:	9301      	str	r3, [sp, #4]
 80054fe:	2302      	movs	r3, #2
 8005500:	9302      	str	r3, [sp, #8]
 8005502:	2300      	movs	r3, #0
 8005504:	9303      	str	r3, [sp, #12]
 8005506:	9304      	str	r3, [sp, #16]
 8005508:	2307      	movs	r3, #7
 800550a:	9305      	str	r3, [sp, #20]
 800550c:	a901      	add	r1, sp, #4
 800550e:	4805      	ldr	r0, [pc, #20]	; (8005524 <HAL_UART_MspInit+0x54>)
 8005510:	f7fc f888 	bl	8001624 <HAL_GPIO_Init>
 8005514:	b007      	add	sp, #28
 8005516:	f85d fb04 	ldr.w	pc, [sp], #4
 800551a:	bf00      	nop
 800551c:	40004800 	.word	0x40004800
 8005520:	58024400 	.word	0x58024400
 8005524:	58020c00 	.word	0x58020c00

08005528 <MX_USB_OTG_FS_PCD_Init>:
 8005528:	b508      	push	{r3, lr}
 800552a:	480d      	ldr	r0, [pc, #52]	; (8005560 <MX_USB_OTG_FS_PCD_Init+0x38>)
 800552c:	4b0d      	ldr	r3, [pc, #52]	; (8005564 <MX_USB_OTG_FS_PCD_Init+0x3c>)
 800552e:	6003      	str	r3, [r0, #0]
 8005530:	2309      	movs	r3, #9
 8005532:	6043      	str	r3, [r0, #4]
 8005534:	2202      	movs	r2, #2
 8005536:	60c2      	str	r2, [r0, #12]
 8005538:	2300      	movs	r3, #0
 800553a:	6103      	str	r3, [r0, #16]
 800553c:	6143      	str	r3, [r0, #20]
 800553e:	6182      	str	r2, [r0, #24]
 8005540:	2201      	movs	r2, #1
 8005542:	61c2      	str	r2, [r0, #28]
 8005544:	6203      	str	r3, [r0, #32]
 8005546:	6283      	str	r3, [r0, #40]	; 0x28
 8005548:	6242      	str	r2, [r0, #36]	; 0x24
 800554a:	62c2      	str	r2, [r0, #44]	; 0x2c
 800554c:	6303      	str	r3, [r0, #48]	; 0x30
 800554e:	f7fc f964 	bl	800181a <HAL_PCD_Init>
 8005552:	b900      	cbnz	r0, 8005556 <MX_USB_OTG_FS_PCD_Init+0x2e>
 8005554:	bd08      	pop	{r3, pc}
 8005556:	2146      	movs	r1, #70	; 0x46
 8005558:	4803      	ldr	r0, [pc, #12]	; (8005568 <MX_USB_OTG_FS_PCD_Init+0x40>)
 800555a:	f7ff fd59 	bl	8005010 <_Error_Handler>
 800555e:	e7f9      	b.n	8005554 <MX_USB_OTG_FS_PCD_Init+0x2c>
 8005560:	20000388 	.word	0x20000388
 8005564:	40080000 	.word	0x40080000
 8005568:	08007bb4 	.word	0x08007bb4

0800556c <HAL_PCD_MspInit>:
 800556c:	6802      	ldr	r2, [r0, #0]
 800556e:	4b16      	ldr	r3, [pc, #88]	; (80055c8 <HAL_PCD_MspInit+0x5c>)
 8005570:	429a      	cmp	r2, r3
 8005572:	d000      	beq.n	8005576 <HAL_PCD_MspInit+0xa>
 8005574:	4770      	bx	lr
 8005576:	b530      	push	{r4, r5, lr}
 8005578:	b087      	sub	sp, #28
 800557a:	f44f 53e8 	mov.w	r3, #7424	; 0x1d00
 800557e:	9301      	str	r3, [sp, #4]
 8005580:	2302      	movs	r3, #2
 8005582:	9302      	str	r3, [sp, #8]
 8005584:	2400      	movs	r4, #0
 8005586:	9403      	str	r4, [sp, #12]
 8005588:	9404      	str	r4, [sp, #16]
 800558a:	230a      	movs	r3, #10
 800558c:	9305      	str	r3, [sp, #20]
 800558e:	4d0f      	ldr	r5, [pc, #60]	; (80055cc <HAL_PCD_MspInit+0x60>)
 8005590:	a901      	add	r1, sp, #4
 8005592:	4628      	mov	r0, r5
 8005594:	f7fc f846 	bl	8001624 <HAL_GPIO_Init>
 8005598:	f44f 7300 	mov.w	r3, #512	; 0x200
 800559c:	9301      	str	r3, [sp, #4]
 800559e:	9402      	str	r4, [sp, #8]
 80055a0:	9403      	str	r4, [sp, #12]
 80055a2:	a901      	add	r1, sp, #4
 80055a4:	4628      	mov	r0, r5
 80055a6:	f7fc f83d 	bl	8001624 <HAL_GPIO_Init>
 80055aa:	4b09      	ldr	r3, [pc, #36]	; (80055d0 <HAL_PCD_MspInit+0x64>)
 80055ac:	f8d3 20d8 	ldr.w	r2, [r3, #216]	; 0xd8
 80055b0:	f042 6200 	orr.w	r2, r2, #134217728	; 0x8000000
 80055b4:	f8c3 20d8 	str.w	r2, [r3, #216]	; 0xd8
 80055b8:	f8d3 30d8 	ldr.w	r3, [r3, #216]	; 0xd8
 80055bc:	f003 6300 	and.w	r3, r3, #134217728	; 0x8000000
 80055c0:	9300      	str	r3, [sp, #0]
 80055c2:	9b00      	ldr	r3, [sp, #0]
 80055c4:	b007      	add	sp, #28
 80055c6:	bd30      	pop	{r4, r5, pc}
 80055c8:	40080000 	.word	0x40080000
 80055cc:	58020000 	.word	0x58020000
 80055d0:	58024400 	.word	0x58024400

080055d4 <Reset_Handler>:
 80055d4:	f8df d034 	ldr.w	sp, [pc, #52]	; 800560c <LoopFillZerobss+0x14>
 80055d8:	2100      	movs	r1, #0
 80055da:	e003      	b.n	80055e4 <LoopCopyDataInit>

080055dc <CopyDataInit>:
 80055dc:	4b0c      	ldr	r3, [pc, #48]	; (8005610 <LoopFillZerobss+0x18>)
 80055de:	585b      	ldr	r3, [r3, r1]
 80055e0:	5043      	str	r3, [r0, r1]
 80055e2:	3104      	adds	r1, #4

080055e4 <LoopCopyDataInit>:
 80055e4:	480b      	ldr	r0, [pc, #44]	; (8005614 <LoopFillZerobss+0x1c>)
 80055e6:	4b0c      	ldr	r3, [pc, #48]	; (8005618 <LoopFillZerobss+0x20>)
 80055e8:	1842      	adds	r2, r0, r1
 80055ea:	429a      	cmp	r2, r3
 80055ec:	d3f6      	bcc.n	80055dc <CopyDataInit>
 80055ee:	4a0b      	ldr	r2, [pc, #44]	; (800561c <LoopFillZerobss+0x24>)
 80055f0:	e002      	b.n	80055f8 <LoopFillZerobss>

080055f2 <FillZerobss>:
 80055f2:	2300      	movs	r3, #0
 80055f4:	f842 3b04 	str.w	r3, [r2], #4

080055f8 <LoopFillZerobss>:
 80055f8:	4b09      	ldr	r3, [pc, #36]	; (8005620 <LoopFillZerobss+0x28>)
 80055fa:	429a      	cmp	r2, r3
 80055fc:	d3f9      	bcc.n	80055f2 <FillZerobss>
 80055fe:	f7ff ff0f 	bl	8005420 <SystemInit>
 8005602:	f000 f811 	bl	8005628 <__libc_init_array>
 8005606:	f7ff fd85 	bl	8005114 <main>
 800560a:	4770      	bx	lr
 800560c:	20020000 	.word	0x20020000
 8005610:	08007bd8 	.word	0x08007bd8
 8005614:	20000000 	.word	0x20000000
 8005618:	2000007c 	.word	0x2000007c
 800561c:	2000013c 	.word	0x2000013c
 8005620:	2000078c 	.word	0x2000078c

08005624 <ADC3_IRQHandler>:
 8005624:	e7fe      	b.n	8005624 <ADC3_IRQHandler>
	...

08005628 <__libc_init_array>:
 8005628:	b570      	push	{r4, r5, r6, lr}
 800562a:	4e0d      	ldr	r6, [pc, #52]	; (8005660 <__libc_init_array+0x38>)
 800562c:	4c0d      	ldr	r4, [pc, #52]	; (8005664 <__libc_init_array+0x3c>)
 800562e:	1ba4      	subs	r4, r4, r6
 8005630:	10a4      	asrs	r4, r4, #2
 8005632:	2500      	movs	r5, #0
 8005634:	42a5      	cmp	r5, r4
 8005636:	d109      	bne.n	800564c <__libc_init_array+0x24>
 8005638:	4e0b      	ldr	r6, [pc, #44]	; (8005668 <__libc_init_array+0x40>)
 800563a:	4c0c      	ldr	r4, [pc, #48]	; (800566c <__libc_init_array+0x44>)
 800563c:	f000 f8a2 	bl	8005784 <_init>
 8005640:	1ba4      	subs	r4, r4, r6
 8005642:	10a4      	asrs	r4, r4, #2
 8005644:	2500      	movs	r5, #0
 8005646:	42a5      	cmp	r5, r4
 8005648:	d105      	bne.n	8005656 <__libc_init_array+0x2e>
 800564a:	bd70      	pop	{r4, r5, r6, pc}
 800564c:	f856 3025 	ldr.w	r3, [r6, r5, lsl #2]
 8005650:	4798      	blx	r3
 8005652:	3501      	adds	r5, #1
 8005654:	e7ee      	b.n	8005634 <__libc_init_array+0xc>
 8005656:	f856 3025 	ldr.w	r3, [r6, r5, lsl #2]
 800565a:	4798      	blx	r3
 800565c:	3501      	adds	r5, #1
 800565e:	e7f2      	b.n	8005646 <__libc_init_array+0x1e>
 8005660:	08007bd0 	.word	0x08007bd0
 8005664:	08007bd0 	.word	0x08007bd0
 8005668:	08007bd0 	.word	0x08007bd0
 800566c:	08007bd4 	.word	0x08007bd4

08005670 <malloc>:
 8005670:	4b02      	ldr	r3, [pc, #8]	; (800567c <malloc+0xc>)
 8005672:	4601      	mov	r1, r0
 8005674:	6818      	ldr	r0, [r3, #0]
 8005676:	f000 b80b 	b.w	8005690 <_malloc_r>
 800567a:	bf00      	nop
 800567c:	20000018 	.word	0x20000018

08005680 <memset>:
 8005680:	4402      	add	r2, r0
 8005682:	4603      	mov	r3, r0
 8005684:	4293      	cmp	r3, r2
 8005686:	d100      	bne.n	800568a <memset+0xa>
 8005688:	4770      	bx	lr
 800568a:	f803 1b01 	strb.w	r1, [r3], #1
 800568e:	e7f9      	b.n	8005684 <memset+0x4>

08005690 <_malloc_r>:
 8005690:	b570      	push	{r4, r5, r6, lr}
 8005692:	1ccd      	adds	r5, r1, #3
 8005694:	f025 0503 	bic.w	r5, r5, #3
 8005698:	3508      	adds	r5, #8
 800569a:	2d0c      	cmp	r5, #12
 800569c:	bf38      	it	cc
 800569e:	250c      	movcc	r5, #12
 80056a0:	2d00      	cmp	r5, #0
 80056a2:	4606      	mov	r6, r0
 80056a4:	db01      	blt.n	80056aa <_malloc_r+0x1a>
 80056a6:	42a9      	cmp	r1, r5
 80056a8:	d903      	bls.n	80056b2 <_malloc_r+0x22>
 80056aa:	230c      	movs	r3, #12
 80056ac:	6033      	str	r3, [r6, #0]
 80056ae:	2000      	movs	r0, #0
 80056b0:	bd70      	pop	{r4, r5, r6, pc}
 80056b2:	f000 f857 	bl	8005764 <__malloc_lock>
 80056b6:	4a21      	ldr	r2, [pc, #132]	; (800573c <_malloc_r+0xac>)
 80056b8:	6814      	ldr	r4, [r2, #0]
 80056ba:	4621      	mov	r1, r4
 80056bc:	b991      	cbnz	r1, 80056e4 <_malloc_r+0x54>
 80056be:	4c20      	ldr	r4, [pc, #128]	; (8005740 <_malloc_r+0xb0>)
 80056c0:	6823      	ldr	r3, [r4, #0]
 80056c2:	b91b      	cbnz	r3, 80056cc <_malloc_r+0x3c>
 80056c4:	4630      	mov	r0, r6
 80056c6:	f000 f83d 	bl	8005744 <_sbrk_r>
 80056ca:	6020      	str	r0, [r4, #0]
 80056cc:	4629      	mov	r1, r5
 80056ce:	4630      	mov	r0, r6
 80056d0:	f000 f838 	bl	8005744 <_sbrk_r>
 80056d4:	1c43      	adds	r3, r0, #1
 80056d6:	d124      	bne.n	8005722 <_malloc_r+0x92>
 80056d8:	230c      	movs	r3, #12
 80056da:	6033      	str	r3, [r6, #0]
 80056dc:	4630      	mov	r0, r6
 80056de:	f000 f842 	bl	8005766 <__malloc_unlock>
 80056e2:	e7e4      	b.n	80056ae <_malloc_r+0x1e>
 80056e4:	680b      	ldr	r3, [r1, #0]
 80056e6:	1b5b      	subs	r3, r3, r5
 80056e8:	d418      	bmi.n	800571c <_malloc_r+0x8c>
 80056ea:	2b0b      	cmp	r3, #11
 80056ec:	d90f      	bls.n	800570e <_malloc_r+0x7e>
 80056ee:	600b      	str	r3, [r1, #0]
 80056f0:	50cd      	str	r5, [r1, r3]
 80056f2:	18cc      	adds	r4, r1, r3
 80056f4:	4630      	mov	r0, r6
 80056f6:	f000 f836 	bl	8005766 <__malloc_unlock>
 80056fa:	f104 000b 	add.w	r0, r4, #11
 80056fe:	1d23      	adds	r3, r4, #4
 8005700:	f020 0007 	bic.w	r0, r0, #7
 8005704:	1ac3      	subs	r3, r0, r3
 8005706:	d0d3      	beq.n	80056b0 <_malloc_r+0x20>
 8005708:	425a      	negs	r2, r3
 800570a:	50e2      	str	r2, [r4, r3]
 800570c:	e7d0      	b.n	80056b0 <_malloc_r+0x20>
 800570e:	428c      	cmp	r4, r1
 8005710:	684b      	ldr	r3, [r1, #4]
 8005712:	bf16      	itet	ne
 8005714:	6063      	strne	r3, [r4, #4]
 8005716:	6013      	streq	r3, [r2, #0]
 8005718:	460c      	movne	r4, r1
 800571a:	e7eb      	b.n	80056f4 <_malloc_r+0x64>
 800571c:	460c      	mov	r4, r1
 800571e:	6849      	ldr	r1, [r1, #4]
 8005720:	e7cc      	b.n	80056bc <_malloc_r+0x2c>
 8005722:	1cc4      	adds	r4, r0, #3
 8005724:	f024 0403 	bic.w	r4, r4, #3
 8005728:	42a0      	cmp	r0, r4
 800572a:	d005      	beq.n	8005738 <_malloc_r+0xa8>
 800572c:	1a21      	subs	r1, r4, r0
 800572e:	4630      	mov	r0, r6
 8005730:	f000 f808 	bl	8005744 <_sbrk_r>
 8005734:	3001      	adds	r0, #1
 8005736:	d0cf      	beq.n	80056d8 <_malloc_r+0x48>
 8005738:	6025      	str	r5, [r4, #0]
 800573a:	e7db      	b.n	80056f4 <_malloc_r+0x64>
 800573c:	20000160 	.word	0x20000160
 8005740:	20000164 	.word	0x20000164

08005744 <_sbrk_r>:
 8005744:	b538      	push	{r3, r4, r5, lr}
 8005746:	4c06      	ldr	r4, [pc, #24]	; (8005760 <_sbrk_r+0x1c>)
 8005748:	2300      	movs	r3, #0
 800574a:	4605      	mov	r5, r0
 800574c:	4608      	mov	r0, r1
 800574e:	6023      	str	r3, [r4, #0]
 8005750:	f000 f80a 	bl	8005768 <_sbrk>
 8005754:	1c43      	adds	r3, r0, #1
 8005756:	d102      	bne.n	800575e <_sbrk_r+0x1a>
 8005758:	6823      	ldr	r3, [r4, #0]
 800575a:	b103      	cbz	r3, 800575e <_sbrk_r+0x1a>
 800575c:	602b      	str	r3, [r5, #0]
 800575e:	bd38      	pop	{r3, r4, r5, pc}
 8005760:	20000788 	.word	0x20000788

08005764 <__malloc_lock>:
 8005764:	4770      	bx	lr

08005766 <__malloc_unlock>:
 8005766:	4770      	bx	lr

08005768 <_sbrk>:
 8005768:	4b04      	ldr	r3, [pc, #16]	; (800577c <_sbrk+0x14>)
 800576a:	6819      	ldr	r1, [r3, #0]
 800576c:	4602      	mov	r2, r0
 800576e:	b909      	cbnz	r1, 8005774 <_sbrk+0xc>
 8005770:	4903      	ldr	r1, [pc, #12]	; (8005780 <_sbrk+0x18>)
 8005772:	6019      	str	r1, [r3, #0]
 8005774:	6818      	ldr	r0, [r3, #0]
 8005776:	4402      	add	r2, r0
 8005778:	601a      	str	r2, [r3, #0]
 800577a:	4770      	bx	lr
 800577c:	20000168 	.word	0x20000168
 8005780:	2000078c 	.word	0x2000078c

08005784 <_init>:
 8005784:	b5f8      	push	{r3, r4, r5, r6, r7, lr}
 8005786:	bf00      	nop
 8005788:	bcf8      	pop	{r3, r4, r5, r6, r7}
 800578a:	bc08      	pop	{r3}
 800578c:	469e      	mov	lr, r3
 800578e:	4770      	bx	lr

08005790 <_fini>:
 8005790:	b5f8      	push	{r3, r4, r5, r6, r7, lr}
 8005792:	bf00      	nop
 8005794:	bcf8      	pop	{r3, r4, r5, r6, r7}
 8005796:	bc08      	pop	{r3}
 8005798:	469e      	mov	lr, r3
 800579a:	4770      	bx	lr
